

Microchip MPLAB XC8 Assembler V2.45 build 20230818022343 
                                                                                               Tue Feb 04 09:54:49 2025

Microchip MPLAB XC8 C Compiler v2.45 (Free license) build 20230818022343 Og1 
     1                           	processor	18F25K80
     2                           	fnconf	rparam,??,?,0
     3                           	pagewidth 120
     4                           	opt	flic
     5                           	psect	nvCOMRAM,global,class=COMRAM,space=1,delta=1,lowdata,noexec
     6                           	psect	cinit,global,reloc=2,class=CODE,delta=1
     7                           	psect	bssCOMRAM,global,class=COMRAM,space=1,delta=1,lowdata,noexec
     8                           	psect	cstackCOMRAM,global,class=COMRAM,space=1,delta=1,lowdata,noexec
     9                           	psect	text0,global,reloc=2,class=CODE,delta=1
    10                           	psect	text1,global,reloc=2,class=CODE,delta=1
    11                           	psect	text2,global,reloc=2,class=CODE,delta=1
    12                           	psect	text3,global,reloc=2,class=CODE,delta=1
    13                           	psect	text4,global,reloc=2,class=CODE,delta=1
    14                           	psect	text5,global,reloc=2,class=CODE,delta=1
    15                           	psect	text6,global,reloc=2,class=CODE,delta=1
    16                           	psect	text7,global,reloc=2,class=CODE,delta=1
    17                           	psect	text8,global,reloc=2,class=CODE,delta=1
    18                           	psect	text9,global,reloc=2,class=CODE,delta=1
    19                           	psect	text10,global,reloc=2,class=CODE,delta=1
    20                           	psect	text11,global,reloc=2,class=CODE,delta=1
    21                           	psect	text12,global,reloc=2,class=CODE,delta=1
    22                           	psect	text13,global,reloc=2,class=CODE,delta=1
    23                           	psect	text14,global,reloc=2,class=CODE,delta=1
    24                           	psect	text15,global,reloc=2,class=CODE,delta=1
    25                           	psect	text16,global,reloc=2,class=CODE,delta=1
    26                           	psect	text17,global,reloc=2,class=CODE,delta=1
    27                           	psect	text18,global,reloc=2,class=CODE,delta=1
    28                           	psect	text19,global,reloc=2,class=CODE,delta=1
    29                           	psect	text20,global,reloc=2,class=CODE,delta=1
    30                           	psect	text21,global,reloc=2,class=CODE,delta=1
    31                           	psect	text22,global,reloc=2,class=CODE,delta=1
    32                           	psect	intcode,global,reloc=2,class=CODE,delta=1
    33                           	psect	text24,global,reloc=2,class=CODE,delta=1
    34                           	psect	text25,global,reloc=2,class=CODE,delta=1
    35                           	psect	text26,global,reloc=2,class=CODE,delta=1
    36                           	psect	text27,global,reloc=2,class=CODE,delta=1
    37                           	psect	text28,global,reloc=2,class=CODE,delta=1
    38                           	psect	text29,global,reloc=2,class=CODE,delta=1
    39                           	psect	text30,global,reloc=2,class=CODE,delta=1
    40                           	psect	text31,global,reloc=2,class=CODE,delta=1
    41                           	psect	text32,global,reloc=2,class=CODE,delta=1
    42                           	psect	text33,global,reloc=2,class=CODE,delta=1
    43                           	psect	text34,global,reloc=2,class=CODE,delta=1
    44                           	psect	text35,global,reloc=2,class=CODE,delta=1
    45                           	psect	smallconst,global,reloc=2,class=SMALLCONST,delta=1,noexec
    46                           	psect	intsave_regs,global,class=BIGRAM,space=1,delta=1,noexec
    47                           	psect	text36,global,reloc=2,class=CODE,delta=1
    48                           	psect	rparam,global,class=COMRAM,space=1,delta=1,noexec
    49                           	psect	temp,global,ovrld,common,class=COMRAM,space=1,delta=1
    50                           	psect	config,global,abs,ovrld,class=CONFIG,space=4,delta=1,noexec
    51   000000                     
    52                           ; Generated 21/07/2023 GMT
    53                           ; 
    54                           ; Copyright © 2023, Microchip Technology Inc. and its subsidiaries ("Microchip")
    55                           ; All rights reserved.
    56                           ; 
    57                           ; This software is developed by Microchip Technology Inc. and its subsidiaries ("Microch
      +                          ip").
    58                           ; 
    59                           ; Redistribution and use in source and binary forms, with or without modification, are
    60                           ; permitted provided that the following conditions are met:
    61                           ; 
    62                           ;     1. Redistributions of source code must retain the above copyright notice, this lis
      +                          t of
    63                           ;        conditions and the following disclaimer.
    64                           ; 
    65                           ;     2. Redistributions in binary form must reproduce the above copyright notice, this 
      +                          list
    66                           ;        of conditions and the following disclaimer in the documentation and/or other
    67                           ;        materials provided with the distribution. Publication is not required when
    68                           ;        this file is used in an embedded application.
    69                           ; 
    70                           ;     3. Microchip's name may not be used to endorse or promote products derived from th
      +                          is
    71                           ;        software without specific prior written permission.
    72                           ; 
    73                           ; THIS SOFTWARE IS PROVIDED BY MICROCHIP "AS IS" AND ANY EXPRESS OR IMPLIED WARRANTIES,
    74                           ; INCLUDING, BUT NOT LIMITED TO, THE IMPLIED WARRANTIES OF MERCHANTABILITY AND FITNESS F
      +                          OR
    75                           ; PURPOSE ARE DISCLAIMED.  IN NO EVENT SHALL MICROCHIP BE LIABLE FOR ANY DIRECT, INDIREC
      +                          T,
    76                           ; INCIDENTAL, SPECIAL, EXEMPLARY, OR CONSEQUENTIAL DAMAGES (INCLUDING BUT NOT LIMITED TO
    77                           ; PROCUREMENT OF SUBSTITUTE GOODS OR SERVICES; LOSS OF USE, DATA OR PROFITS; OR BUSINESS
    78                           ; INTERRUPTION) HOWSOEVER CAUSED AND ON ANY THEORY OF LIABILITY, WHETHER IN CONTRACT, ST
      +                          RICT
    79                           ; LIABILITY, OR TORT (INCLUDING NEGLIGENCE OR OTHERWISE) ARISING IN ANY WAY OUT OF THE U
      +                          SE OF
    80                           ; THIS SOFTWARE, EVEN IF ADVISED OF THE POSSIBILITY OF SUCH DAMAGE.
    81                           ; 
    82                           ; 
    83                           ; Code-generator required, PIC18F25K80 Definitions
    84                           ; 
    85                           ; SFR Addresses
    86   000000                     _RCREG2	set	3962
    87   000000                     _SPBRGH2	set	3964
    88   000000                     _TXSTA2	set	4026
    89   000000                     _CCPR1L	set	4028
    90   000000                     _CCPR1H	set	4029
    91   000000                     _RCREG1	set	4014
    92   000000                     _TXREG1	set	4013
    93   000000                     _SPBRG1	set	4015
    94   000000                     _TXSTA1	set	4012
    95   000000                     _ADRESL	set	4035
    96   000000                     _ADRESH	set	4036
    97                           
    98                           	psect	nvCOMRAM
    99   000041                     __pnvCOMRAM:
   100                           	callstack 0
   101   000041                     _EUSART2_ErrorHandler:
   102                           	callstack 0
   103   000041                     	ds	2
   104   000043                     _EUSART2_OverrunErrorHandler:
   105                           	callstack 0
   106   000043                     	ds	2
   107   000045                     _EUSART2_FramingErrorHandler:
   108                           	callstack 0
   109   000045                     	ds	2
   110   000047                     _EUSART2_RxDefaultInterruptHandler:
   111                           	callstack 0
   112   000047                     	ds	2
   113   000049                     _EUSART2_TxDefaultInterruptHandler:
   114                           	callstack 0
   115   000049                     	ds	2
   116   00004B                     _EUSART1_ErrorHandler:
   117                           	callstack 0
   118   00004B                     	ds	2
   119   00004D                     _EUSART1_OverrunErrorHandler:
   120                           	callstack 0
   121   00004D                     	ds	2
   122   00004F                     _EUSART1_FramingErrorHandler:
   123                           	callstack 0
   124   00004F                     	ds	2
   125   000051                     _EUSART1_RxDefaultInterruptHandler:
   126                           	callstack 0
   127   000051                     	ds	2
   128   000053                     _EUSART1_TxDefaultInterruptHandler:
   129                           	callstack 0
   130   000053                     	ds	2
   131   000000                     _RCSTA2bits	set	4006
   132   000000                     _TXSTA2bits	set	4026
   133   000000                     _T2CONbits	set	4042
   134   000000                     _RCSTA1bits	set	4011
   135   000000                     _TXSTA1bits	set	4012
   136   000000                     _ADCON0bits	set	4034
   137   000000                     _CCP2CON	set	3920
   138   000000                     _WPUB	set	3931
   139   000000                     _ANCON1	set	3932
   140   000000                     _ANCON0	set	3933
   141   000000                     _SPBRGH1	set	3965
   142   000000                     _REFOCON	set	3994
   143   000000                     _OSCTUNE	set	3995
   144   000000                     _ADCON2	set	4032
   145   000000                     _ADCON1	set	4033
   146   000000                     _ADCON0	set	4034
   147   000000                     _T2CON	set	4042
   148   000000                     _PR2	set	4043
   149   000000                     _OSCCON2	set	4050
   150   000000                     _OSCCON	set	4051
   151   000000                     _INTCON2bits	set	4081
   152   000000                     _PIE1bits	set	3997
   153   000000                     _PIE3bits	set	4003
   154   000000                     _PIR1bits	set	3998
   155   000000                     _BAUDCON1	set	4007
   156   000000                     _RCSTA1	set	4011
   157   000000                     _BAUDCON2	set	4025
   158   000000                     _CCP1CON	set	4027
   159   000000                     _LATA	set	3977
   160   000000                     _TRISA	set	3986
   161   000000                     _LATC	set	3979
   162   000000                     _LATB	set	3978
   163   000000                     _CCPTMRSbits	set	3993
   164   000000                     _TRISC	set	3988
   165   000000                     _TRISB	set	3987
   166   000000                     _TXREG2	set	3961
   167   000000                     _SPBRG2	set	3963
   168   000000                     _INTCONbits	set	4082
   169   000000                     _RCONbits	set	4048
   170   000000                     _TMR2	set	4044
   171   000000                     _CCPR2H	set	3922
   172   000000                     _CCPR2L	set	3921
   173   000000                     _PIR3bits	set	4004
   174   000000                     _RCSTA2	set	4006
   175                           
   176                           ; #config settings
   177                           
   178                           	psect	cinit
   179   0012A4                     __pcinit:
   180                           	callstack 0
   181   0012A4                     start_initialization:
   182                           	callstack 0
   183   0012A4                     __initialization:
   184                           	callstack 0
   185                           
   186                           ; Clear objects allocated to COMRAM (64 bytes)
   187   0012A4  EE00  F001         	lfsr	0,__pbssCOMRAM
   188   0012A8  0E40               	movlw	64
   189   0012AA                     clear_0:
   190   0012AA  6AEE               	clrf	postinc0,c
   191   0012AC  06E8               	decf	wreg,f,c
   192   0012AE  E1FD               	bnz	clear_0
   193   0012B0                     end_of_initialization:
   194                           	callstack 0
   195   0012B0                     __end_of__initialization:
   196                           	callstack 0
   197   0012B0  905B               	bcf	int$flags,0,c	;clear compiler interrupt flag (level 1)
   198   0012B2  925B               	bcf	int$flags,1,c	;clear compiler interrupt flag (level 2)
   199   0012B4  0E00               	movlw	low (__Lmediumconst shr (0+16))
   200   0012B6  6EF8               	movwf	tblptru,c
   201   0012B8  0100               	movlb	0
   202   0012BA  EF6A  F009         	goto	_main	;jump to C main() function
   203                           
   204                           	psect	bssCOMRAM
   205   000001                     __pbssCOMRAM:
   206                           	callstack 0
   207   000001                     _eusart2RxStatusBuffer:
   208                           	callstack 0
   209   000001                     	ds	8
   210   000009                     _eusart2RxBuffer:
   211                           	callstack 0
   212   000009                     	ds	8
   213   000011                     _eusart2TxBuffer:
   214                           	callstack 0
   215   000011                     	ds	8
   216   000019                     _eusart1RxStatusBuffer:
   217                           	callstack 0
   218   000019                     	ds	8
   219   000021                     _eusart1RxBuffer:
   220                           	callstack 0
   221   000021                     	ds	8
   222   000029                     _eusart1TxBuffer:
   223                           	callstack 0
   224   000029                     	ds	8
   225   000031                     _ADC_InterruptHandler:
   226                           	callstack 0
   227   000031                     	ds	2
   228   000033                     _eusart2RxLastError:
   229                           	callstack 0
   230   000033                     	ds	1
   231   000034                     _eusart2RxCount:
   232                           	callstack 0
   233   000034                     	ds	1
   234   000035                     _eusart2RxTail:
   235                           	callstack 0
   236   000035                     	ds	1
   237   000036                     _eusart2RxHead:
   238                           	callstack 0
   239   000036                     	ds	1
   240   000037                     _eusart2TxBufferRemaining:
   241                           	callstack 0
   242   000037                     	ds	1
   243   000038                     _eusart2TxTail:
   244                           	callstack 0
   245   000038                     	ds	1
   246   000039                     _eusart2TxHead:
   247                           	callstack 0
   248   000039                     	ds	1
   249   00003A                     _eusart1RxLastError:
   250                           	callstack 0
   251   00003A                     	ds	1
   252   00003B                     _eusart1RxCount:
   253                           	callstack 0
   254   00003B                     	ds	1
   255   00003C                     _eusart1RxTail:
   256                           	callstack 0
   257   00003C                     	ds	1
   258   00003D                     _eusart1RxHead:
   259                           	callstack 0
   260   00003D                     	ds	1
   261   00003E                     _eusart1TxBufferRemaining:
   262                           	callstack 0
   263   00003E                     	ds	1
   264   00003F                     _eusart1TxTail:
   265                           	callstack 0
   266   00003F                     	ds	1
   267   000040                     _eusart1TxHead:
   268                           	callstack 0
   269   000040                     	ds	1
   270                           
   271                           	psect	cstackCOMRAM
   272   000055                     __pcstackCOMRAM:
   273                           	callstack 0
   274   000055                     ??_INTERRUPT_InterruptManager:
   275                           
   276                           ; 1 bytes @ 0x0
   277   000055                     	ds	4
   278   000059                     EUSART2_Write@txData:
   279                           	callstack 0
   280   000059                     EUSART1_SetFramingErrorHandler@interruptHandler:
   281                           	callstack 0
   282   000059                     EUSART1_SetOverrunErrorHandler@interruptHandler:
   283                           	callstack 0
   284   000059                     EUSART1_SetErrorHandler@interruptHandler:
   285                           	callstack 0
   286   000059                     EUSART1_SetTxInterruptHandler@interruptHandler:
   287                           	callstack 0
   288   000059                     EUSART1_SetRxInterruptHandler@interruptHandler:
   289                           	callstack 0
   290   000059                     EUSART2_SetFramingErrorHandler@interruptHandler:
   291                           	callstack 0
   292   000059                     EUSART2_SetOverrunErrorHandler@interruptHandler:
   293                           	callstack 0
   294   000059                     EUSART2_SetErrorHandler@interruptHandler:
   295                           	callstack 0
   296   000059                     EUSART2_SetTxInterruptHandler@interruptHandler:
   297                           	callstack 0
   298   000059                     EUSART2_SetRxInterruptHandler@interruptHandler:
   299                           	callstack 0
   300                           
   301                           ; 2 bytes @ 0x4
   302   000059                     	ds	1
   303   00005A                     
   304                           ; 1 bytes @ 0x5
   305   00005A                     	ds	1
   306   00005B                     
   307                           ; 1 bytes @ 0x6
   308 ;;
   309 ;;Main: autosize = 0, tempsize = 0, incstack = 0, save=0
   310 ;;
   311 ;; *************** function _main *****************
   312 ;; Defined at:
   313 ;;		line 50 in file "main.c"
   314 ;; Parameters:    Size  Location     Type
   315 ;;		None
   316 ;; Auto vars:     Size  Location     Type
   317 ;;		None
   318 ;; Return value:  Size  Location     Type
   319 ;;                  1    wreg      void 
   320 ;; Registers used:
   321 ;;		wreg, fsr2l, fsr2h, status,2, status,0, cstack
   322 ;; Tracked objects:
   323 ;;		On entry : 0/0
   324 ;;		On exit  : 0/0
   325 ;;		Unchanged: 0/0
   326 ;; Data sizes:     COMRAM   BANK0   BANK1   BANK2   BANK3   BANK4   BANK5   BANK6   BANK7   BANK8   BANK9  BANK10  BANK1
      +1  BANK12  BANK13  BANK14
   327 ;;      Params:         0       0       0       0       0       0       0       0       0       0       0       0       
      +0       0       0       0
   328 ;;      Locals:         0       0       0       0       0       0       0       0       0       0       0       0       
      +0       0       0       0
   329 ;;      Temps:          0       0       0       0       0       0       0       0       0       0       0       0       
      +0       0       0       0
   330 ;;      Totals:         0       0       0       0       0       0       0       0       0       0       0       0       
      +0       0       0       0
   331 ;;Total ram usage:        0 bytes
   332 ;; Hardware stack levels required when called: 7
   333 ;; This function calls:
   334 ;;		_SYSTEM_Initialize
   335 ;;		_videEcran
   336 ;; This function is called by:
   337 ;;		Startup code after reset
   338 ;; This function uses a non-reentrant model
   339 ;;
   340                           
   341                           	psect	text0
   342   0012D4                     __ptext0:
   343                           	callstack 0
   344   0012D4                     _main:
   345                           	callstack 24
   346   0012D4                     
   347                           ;main.c: 53:     SYSTEM_Initialize();
   348   0012D4  EC19  F009         	call	_SYSTEM_Initialize	;wreg free
   349   0012D8                     
   350                           ;main.c: 60:     (INTCONbits.GIE = 1);
   351   0012D8  8EF2               	bsf	242,7,c	;volatile
   352   0012DA                     
   353                           ;main.c: 66:     (INTCONbits.PEIE = 1);
   354   0012DA  8CF2               	bsf	242,6,c	;volatile
   355   0012DC                     
   356                           ;main.c: 71:     videEcran();
   357   0012DC  EC8E  F009         	call	_videEcran	;wreg free
   358   0012E0                     l264:
   359   0012E0  EF70  F009         	goto	l264
   360   0012E4  EF92  F000         	goto	start
   361   0012E8                     __end_of_main:
   362                           	callstack 0
   363                           
   364 ;; *************** function _videEcran *****************
   365 ;; Defined at:
   366 ;;		line 23 in file "ecran.c"
   367 ;; Parameters:    Size  Location     Type
   368 ;;		None
   369 ;; Auto vars:     Size  Location     Type
   370 ;;		None
   371 ;; Return value:  Size  Location     Type
   372 ;;                  1    wreg      void 
   373 ;; Registers used:
   374 ;;		wreg, fsr2l, fsr2h, status,2, status,0, cstack
   375 ;; Tracked objects:
   376 ;;		On entry : 0/0
   377 ;;		On exit  : 0/0
   378 ;;		Unchanged: 0/0
   379 ;; Data sizes:     COMRAM   BANK0   BANK1   BANK2   BANK3   BANK4   BANK5   BANK6   BANK7   BANK8   BANK9  BANK10  BANK1
      +1  BANK12  BANK13  BANK14
   380 ;;      Params:         0       0       0       0       0       0       0       0       0       0       0       0       
      +0       0       0       0
   381 ;;      Locals:         0       0       0       0       0       0       0       0       0       0       0       0       
      +0       0       0       0
   382 ;;      Temps:          0       0       0       0       0       0       0       0       0       0       0       0       
      +0       0       0       0
   383 ;;      Totals:         0       0       0       0       0       0       0       0       0       0       0       0       
      +0       0       0       0
   384 ;;Total ram usage:        0 bytes
   385 ;; Hardware stack levels used: 1
   386 ;; Hardware stack levels required when called: 5
   387 ;; This function calls:
   388 ;;		_EUSART2_Write
   389 ;; This function is called by:
   390 ;;		_main
   391 ;; This function uses a non-reentrant model
   392 ;;
   393                           
   394                           	psect	text1
   395   00131C                     __ptext1:
   396                           	callstack 0
   397   00131C                     _videEcran:
   398                           	callstack 25
   399   00131C                     
   400                           ;ecran.c: 25:     EUSART2_Write(0xFE);
   401   00131C  0EFE               	movlw	254
   402   00131E  EC9F  F008         	call	_EUSART2_Write
   403                           
   404                           ;ecran.c: 26:     EUSART2_Write(0x51);
   405   001322  0E51               	movlw	81
   406   001324  EC9F  F008         	call	_EUSART2_Write
   407   001328  0012               	return		;funcret
   408   00132A                     __end_of_videEcran:
   409                           	callstack 0
   410                           
   411 ;; *************** function _EUSART2_Write *****************
   412 ;; Defined at:
   413 ;;		line 173 in file "mcc_generated_files/eusart2.c"
   414 ;; Parameters:    Size  Location     Type
   415 ;;  txData          1    wreg     unsigned char 
   416 ;; Auto vars:     Size  Location     Type
   417 ;;  txData          1    4[COMRAM] unsigned char 
   418 ;; Return value:  Size  Location     Type
   419 ;;                  1    wreg      void 
   420 ;; Registers used:
   421 ;;		wreg, fsr2l, fsr2h, status,2, status,0
   422 ;; Tracked objects:
   423 ;;		On entry : 0/0
   424 ;;		On exit  : 0/0
   425 ;;		Unchanged: 0/0
   426 ;; Data sizes:     COMRAM   BANK0   BANK1   BANK2   BANK3   BANK4   BANK5   BANK6   BANK7   BANK8   BANK9  BANK10  BANK1
      +1  BANK12  BANK13  BANK14
   427 ;;      Params:         0       0       0       0       0       0       0       0       0       0       0       0       
      +0       0       0       0
   428 ;;      Locals:         1       0       0       0       0       0       0       0       0       0       0       0       
      +0       0       0       0
   429 ;;      Temps:          0       0       0       0       0       0       0       0       0       0       0       0       
      +0       0       0       0
   430 ;;      Totals:         1       0       0       0       0       0       0       0       0       0       0       0       
      +0       0       0       0
   431 ;;Total ram usage:        1 bytes
   432 ;; Hardware stack levels used: 1
   433 ;; Hardware stack levels required when called: 4
   434 ;; This function calls:
   435 ;;		Nothing
   436 ;; This function is called by:
   437 ;;		_videEcran
   438 ;;		_ecranAllume
   439 ;;		_ecranEteint
   440 ;;		_curseurPosition
   441 ;;		_ecrireCaractere
   442 ;;		_BR
   443 ;; This function uses a non-reentrant model
   444 ;;
   445                           
   446                           	psect	text2
   447   00113E                     __ptext2:
   448                           	callstack 0
   449   00113E                     _EUSART2_Write:
   450                           	callstack 25
   451                           
   452                           ;incstack = 0
   453                           ;EUSART2_Write@txData stored from wreg
   454   00113E  6E59               	movwf	EUSART2_Write@txData^0,c
   455   001140                     l1305:
   456                           
   457                           ;mcc_generated_files/eusart2.c: 175:     while(0 == eusart2TxBufferRemaining)
   458   001140  5037               	movf	_eusart2TxBufferRemaining^0,w,c	;volatile
   459   001142  B4D8               	btfsc	status,2,c
   460   001144  EFA6  F008         	goto	u31
   461   001148  EFA8  F008         	goto	u30
   462   00114C                     u31:
   463   00114C  EFA0  F008         	goto	l1305
   464   001150                     u30:
   465   001150                     
   466                           ;mcc_generated_files/eusart2.c: 179:     if(0 == PIE3bits.TX2IE)
   467   001150  B8A3               	btfsc	163,4,c	;volatile
   468   001152  EFAD  F008         	goto	u41
   469   001156  EFAF  F008         	goto	u40
   470   00115A                     u41:
   471   00115A  EFB3  F008         	goto	l433
   472   00115E                     u40:
   473   00115E                     
   474                           ;mcc_generated_files/eusart2.c: 180:     {;mcc_generated_files/eusart2.c: 181:         T
      +                          XREG2 = txData;
   475   00115E  C059  FF79         	movff	EUSART2_Write@txData,3961	;volatile
   476                           
   477                           ;mcc_generated_files/eusart2.c: 182:     }
   478   001162  EFC6  F008         	goto	l1319
   479   001166                     l433:
   480                           
   481                           ;mcc_generated_files/eusart2.c: 184:     {;mcc_generated_files/eusart2.c: 185:         P
      +                          IE3bits.TX2IE = 0;
   482   001166  98A3               	bcf	163,4,c	;volatile
   483   001168                     
   484                           ;mcc_generated_files/eusart2.c: 186:         eusart2TxBuffer[eusart2TxHead++] = txData;
   485   001168  5039               	movf	_eusart2TxHead^0,w,c
   486   00116A  0F11               	addlw	low _eusart2TxBuffer
   487   00116C  6ED9               	movwf	fsr2l,c
   488   00116E  6ADA               	clrf	fsr2h,c
   489   001170  C059  FFDF         	movff	EUSART2_Write@txData,indf2
   490   001174  2A39               	incf	_eusart2TxHead^0,f,c	;volatile
   491   001176                     
   492                           ;mcc_generated_files/eusart2.c: 187:         if(sizeof(eusart2TxBuffer) <= eusart2TxHead
      +                          )
   493   001176  0E07               	movlw	7
   494   001178  6439               	cpfsgt	_eusart2TxHead^0,c	;volatile
   495   00117A  EFC1  F008         	goto	u51
   496   00117E  EFC3  F008         	goto	u50
   497   001182                     u51:
   498   001182  EFC5  F008         	goto	l1317
   499   001186                     u50:
   500   001186                     
   501                           ;mcc_generated_files/eusart2.c: 188:         {;mcc_generated_files/eusart2.c: 189:      
      +                                 eusart2TxHead = 0;
   502   001186  0E00               	movlw	0
   503   001188  6E39               	movwf	_eusart2TxHead^0,c	;volatile
   504   00118A                     l1317:
   505                           
   506                           ;mcc_generated_files/eusart2.c: 191:         eusart2TxBufferRemaining--;
   507   00118A  0637               	decf	_eusart2TxBufferRemaining^0,f,c	;volatile
   508   00118C                     l1319:
   509                           
   510                           ;mcc_generated_files/eusart2.c: 193:     PIE3bits.TX2IE = 1;
   511   00118C  88A3               	bsf	163,4,c	;volatile
   512   00118E  0012               	return		;funcret
   513   001190                     __end_of_EUSART2_Write:
   514                           	callstack 0
   515                           
   516 ;; *************** function _SYSTEM_Initialize *****************
   517 ;; Defined at:
   518 ;;		line 50 in file "mcc_generated_files/mcc.c"
   519 ;; Parameters:    Size  Location     Type
   520 ;;		None
   521 ;; Auto vars:     Size  Location     Type
   522 ;;		None
   523 ;; Return value:  Size  Location     Type
   524 ;;                  1    wreg      void 
   525 ;; Registers used:
   526 ;;		wreg, status,2, status,0, cstack
   527 ;; Tracked objects:
   528 ;;		On entry : 0/0
   529 ;;		On exit  : 0/0
   530 ;;		Unchanged: 0/0
   531 ;; Data sizes:     COMRAM   BANK0   BANK1   BANK2   BANK3   BANK4   BANK5   BANK6   BANK7   BANK8   BANK9  BANK10  BANK1
      +1  BANK12  BANK13  BANK14
   532 ;;      Params:         0       0       0       0       0       0       0       0       0       0       0       0       
      +0       0       0       0
   533 ;;      Locals:         0       0       0       0       0       0       0       0       0       0       0       0       
      +0       0       0       0
   534 ;;      Temps:          0       0       0       0       0       0       0       0       0       0       0       0       
      +0       0       0       0
   535 ;;      Totals:         0       0       0       0       0       0       0       0       0       0       0       0       
      +0       0       0       0
   536 ;;Total ram usage:        0 bytes
   537 ;; Hardware stack levels used: 1
   538 ;; Hardware stack levels required when called: 6
   539 ;; This function calls:
   540 ;;		_ADC_Initialize
   541 ;;		_ECCP1_Initialize
   542 ;;		_EUSART1_Initialize
   543 ;;		_EUSART2_Initialize
   544 ;;		_INTERRUPT_Initialize
   545 ;;		_OSCILLATOR_Initialize
   546 ;;		_PIN_MANAGER_Initialize
   547 ;;		_PWM2_Initialize
   548 ;;		_TMR2_Initialize
   549 ;; This function is called by:
   550 ;;		_main
   551 ;; This function uses a non-reentrant model
   552 ;;
   553                           
   554                           	psect	text3
   555   001232                     __ptext3:
   556                           	callstack 0
   557   001232                     _SYSTEM_Initialize:
   558                           	callstack 24
   559   001232                     
   560                           ;mcc_generated_files/mcc.c: 53:     INTERRUPT_Initialize();
   561   001232  ECDA  F009         	call	_INTERRUPT_Initialize	;wreg free
   562   001236                     
   563                           ;mcc_generated_files/mcc.c: 54:     PIN_MANAGER_Initialize();
   564   001236  EC04  F009         	call	_PIN_MANAGER_Initialize	;wreg free
   565   00123A                     
   566                           ;mcc_generated_files/mcc.c: 55:     OSCILLATOR_Initialize();
   567   00123A  EC7D  F009         	call	_OSCILLATOR_Initialize	;wreg free
   568   00123E                     
   569                           ;mcc_generated_files/mcc.c: 56:     ECCP1_Initialize();
   570   00123E  EC95  F009         	call	_ECCP1_Initialize	;wreg free
   571   001242                     
   572                           ;mcc_generated_files/mcc.c: 57:     PWM2_Initialize();
   573   001242  EC74  F009         	call	_PWM2_Initialize	;wreg free
   574   001246                     
   575                           ;mcc_generated_files/mcc.c: 58:     ADC_Initialize();
   576   001246  EC5F  F009         	call	_ADC_Initialize	;wreg free
   577   00124A                     
   578                           ;mcc_generated_files/mcc.c: 59:     TMR2_Initialize();
   579   00124A  EC86  F009         	call	_TMR2_Initialize	;wreg free
   580   00124E                     
   581                           ;mcc_generated_files/mcc.c: 60:     EUSART1_Initialize();
   582   00124E  EC65  F008         	call	_EUSART1_Initialize	;wreg free
   583   001252                     
   584                           ;mcc_generated_files/mcc.c: 61:     EUSART2_Initialize();
   585   001252  EC2B  F008         	call	_EUSART2_Initialize	;wreg free
   586   001256  0012               	return		;funcret
   587   001258                     __end_of_SYSTEM_Initialize:
   588                           	callstack 0
   589                           
   590 ;; *************** function _TMR2_Initialize *****************
   591 ;; Defined at:
   592 ;;		line 62 in file "mcc_generated_files/tmr2.c"
   593 ;; Parameters:    Size  Location     Type
   594 ;;		None
   595 ;; Auto vars:     Size  Location     Type
   596 ;;		None
   597 ;; Return value:  Size  Location     Type
   598 ;;                  1    wreg      void 
   599 ;; Registers used:
   600 ;;		wreg, status,2
   601 ;; Tracked objects:
   602 ;;		On entry : 0/0
   603 ;;		On exit  : 0/0
   604 ;;		Unchanged: 0/0
   605 ;; Data sizes:     COMRAM   BANK0   BANK1   BANK2   BANK3   BANK4   BANK5   BANK6   BANK7   BANK8   BANK9  BANK10  BANK1
      +1  BANK12  BANK13  BANK14
   606 ;;      Params:         0       0       0       0       0       0       0       0       0       0       0       0       
      +0       0       0       0
   607 ;;      Locals:         0       0       0       0       0       0       0       0       0       0       0       0       
      +0       0       0       0
   608 ;;      Temps:          0       0       0       0       0       0       0       0       0       0       0       0       
      +0       0       0       0
   609 ;;      Totals:         0       0       0       0       0       0       0       0       0       0       0       0       
      +0       0       0       0
   610 ;;Total ram usage:        0 bytes
   611 ;; Hardware stack levels used: 1
   612 ;; Hardware stack levels required when called: 4
   613 ;; This function calls:
   614 ;;		Nothing
   615 ;; This function is called by:
   616 ;;		_SYSTEM_Initialize
   617 ;; This function uses a non-reentrant model
   618 ;;
   619                           
   620                           	psect	text4
   621   00130C                     __ptext4:
   622                           	callstack 0
   623   00130C                     _TMR2_Initialize:
   624                           	callstack 25
   625   00130C                     
   626                           ;mcc_generated_files/tmr2.c: 67:     PR2 = 0xF9;
   627   00130C  0EF9               	movlw	249
   628   00130E  6ECB               	movwf	203,c	;volatile
   629                           
   630                           ;mcc_generated_files/tmr2.c: 70:     TMR2 = 0x00;
   631   001310  0E00               	movlw	0
   632   001312  6ECC               	movwf	204,c	;volatile
   633   001314                     
   634                           ;mcc_generated_files/tmr2.c: 73:     PIR1bits.TMR2IF = 0;
   635   001314  929E               	bcf	158,1,c	;volatile
   636                           
   637                           ;mcc_generated_files/tmr2.c: 76:     T2CON = 0x04;
   638   001316  0E04               	movlw	4
   639   001318  6ECA               	movwf	202,c	;volatile
   640   00131A  0012               	return		;funcret
   641   00131C                     __end_of_TMR2_Initialize:
   642                           	callstack 0
   643                           
   644 ;; *************** function _PWM2_Initialize *****************
   645 ;; Defined at:
   646 ;;		line 64 in file "mcc_generated_files/pwm2.c"
   647 ;; Parameters:    Size  Location     Type
   648 ;;		None
   649 ;; Auto vars:     Size  Location     Type
   650 ;;		None
   651 ;; Return value:  Size  Location     Type
   652 ;;                  1    wreg      void 
   653 ;; Registers used:
   654 ;;		wreg, status,2
   655 ;; Tracked objects:
   656 ;;		On entry : 0/0
   657 ;;		On exit  : 0/0
   658 ;;		Unchanged: 0/0
   659 ;; Data sizes:     COMRAM   BANK0   BANK1   BANK2   BANK3   BANK4   BANK5   BANK6   BANK7   BANK8   BANK9  BANK10  BANK1
      +1  BANK12  BANK13  BANK14
   660 ;;      Params:         0       0       0       0       0       0       0       0       0       0       0       0       
      +0       0       0       0
   661 ;;      Locals:         0       0       0       0       0       0       0       0       0       0       0       0       
      +0       0       0       0
   662 ;;      Temps:          0       0       0       0       0       0       0       0       0       0       0       0       
      +0       0       0       0
   663 ;;      Totals:         0       0       0       0       0       0       0       0       0       0       0       0       
      +0       0       0       0
   664 ;;Total ram usage:        0 bytes
   665 ;; Hardware stack levels used: 1
   666 ;; Hardware stack levels required when called: 4
   667 ;; This function calls:
   668 ;;		Nothing
   669 ;; This function is called by:
   670 ;;		_SYSTEM_Initialize
   671 ;; This function uses a non-reentrant model
   672 ;;
   673                           
   674                           	psect	text5
   675   0012E8                     __ptext5:
   676                           	callstack 0
   677   0012E8                     _PWM2_Initialize:
   678                           	callstack 25
   679   0012E8                     
   680                           ;mcc_generated_files/pwm2.c: 69:  CCP2CON = 0x0C;
   681   0012E8  0E0C               	movlw	12
   682   0012EA  010F               	movlb	15	; () banked
   683   0012EC  6F50               	movwf	80,b	;volatile
   684                           
   685                           ;mcc_generated_files/pwm2.c: 72:  CCPR2L = 0x00;
   686   0012EE  0E00               	movlw	0
   687   0012F0  6F51               	movwf	81,b	;volatile
   688                           
   689                           ;mcc_generated_files/pwm2.c: 75:  CCPR2H = 0x00;
   690   0012F2  0E00               	movlw	0
   691   0012F4  6F52               	movwf	82,b	;volatile
   692   0012F6                     
   693                           ; BSR set to: 15
   694                           ;mcc_generated_files/pwm2.c: 78:  CCPTMRSbits.C2TSEL = 0x0;
   695   0012F6  9299               	bcf	153,1,c	;volatile
   696   0012F8                     
   697                           ; BSR set to: 15
   698   0012F8  0012               	return		;funcret
   699   0012FA                     __end_of_PWM2_Initialize:
   700                           	callstack 0
   701                           
   702 ;; *************** function _PIN_MANAGER_Initialize *****************
   703 ;; Defined at:
   704 ;;		line 55 in file "mcc_generated_files/pin_manager.c"
   705 ;; Parameters:    Size  Location     Type
   706 ;;		None
   707 ;; Auto vars:     Size  Location     Type
   708 ;;		None
   709 ;; Return value:  Size  Location     Type
   710 ;;                  1    wreg      void 
   711 ;; Registers used:
   712 ;;		wreg, status,2
   713 ;; Tracked objects:
   714 ;;		On entry : 0/0
   715 ;;		On exit  : 0/0
   716 ;;		Unchanged: 0/0
   717 ;; Data sizes:     COMRAM   BANK0   BANK1   BANK2   BANK3   BANK4   BANK5   BANK6   BANK7   BANK8   BANK9  BANK10  BANK1
      +1  BANK12  BANK13  BANK14
   718 ;;      Params:         0       0       0       0       0       0       0       0       0       0       0       0       
      +0       0       0       0
   719 ;;      Locals:         0       0       0       0       0       0       0       0       0       0       0       0       
      +0       0       0       0
   720 ;;      Temps:          0       0       0       0       0       0       0       0       0       0       0       0       
      +0       0       0       0
   721 ;;      Totals:         0       0       0       0       0       0       0       0       0       0       0       0       
      +0       0       0       0
   722 ;;Total ram usage:        0 bytes
   723 ;; Hardware stack levels used: 1
   724 ;; Hardware stack levels required when called: 4
   725 ;; This function calls:
   726 ;;		Nothing
   727 ;; This function is called by:
   728 ;;		_SYSTEM_Initialize
   729 ;; This function uses a non-reentrant model
   730 ;;
   731                           
   732                           	psect	text6
   733   001208                     __ptext6:
   734                           	callstack 0
   735   001208                     _PIN_MANAGER_Initialize:
   736                           	callstack 25
   737   001208                     
   738                           ;mcc_generated_files/pin_manager.c: 60:     LATA = 0x00;
   739   001208  0E00               	movlw	0
   740   00120A  6E89               	movwf	137,c	;volatile
   741                           
   742                           ;mcc_generated_files/pin_manager.c: 61:     LATB = 0x00;
   743   00120C  0E00               	movlw	0
   744   00120E  6E8A               	movwf	138,c	;volatile
   745                           
   746                           ;mcc_generated_files/pin_manager.c: 62:     LATC = 0x00;
   747   001210  0E00               	movlw	0
   748   001212  6E8B               	movwf	139,c	;volatile
   749                           
   750                           ;mcc_generated_files/pin_manager.c: 67:     TRISA = 0xEF;
   751   001214  0EEF               	movlw	239
   752   001216  6E92               	movwf	146,c	;volatile
   753                           
   754                           ;mcc_generated_files/pin_manager.c: 68:     TRISB = 0xBF;
   755   001218  0EBF               	movlw	191
   756   00121A  6E93               	movwf	147,c	;volatile
   757                           
   758                           ;mcc_generated_files/pin_manager.c: 69:     TRISC = 0xBB;
   759   00121C  0EBB               	movlw	187
   760   00121E  6E94               	movwf	148,c	;volatile
   761                           
   762                           ;mcc_generated_files/pin_manager.c: 74:     ANCON0 = 0x1F;
   763   001220  0E1F               	movlw	31
   764   001222  010F               	movlb	15	; () banked
   765   001224  6F5D               	movwf	93,b	;volatile
   766                           
   767                           ;mcc_generated_files/pin_manager.c: 75:     ANCON1 = 0x07;
   768   001226  0E07               	movlw	7
   769   001228  6F5C               	movwf	92,b	;volatile
   770                           
   771                           ;mcc_generated_files/pin_manager.c: 80:     WPUB = 0x00;
   772   00122A  0E00               	movlw	0
   773   00122C  6F5B               	movwf	91,b	;volatile
   774   00122E                     
   775                           ; BSR set to: 15
   776                           ;mcc_generated_files/pin_manager.c: 81:     INTCON2bits.nRBPU = 1;
   777   00122E  8EF1               	bsf	241,7,c	;volatile
   778   001230                     
   779                           ; BSR set to: 15
   780   001230  0012               	return		;funcret
   781   001232                     __end_of_PIN_MANAGER_Initialize:
   782                           	callstack 0
   783                           
   784 ;; *************** function _OSCILLATOR_Initialize *****************
   785 ;; Defined at:
   786 ;;		line 64 in file "mcc_generated_files/mcc.c"
   787 ;; Parameters:    Size  Location     Type
   788 ;;		None
   789 ;; Auto vars:     Size  Location     Type
   790 ;;		None
   791 ;; Return value:  Size  Location     Type
   792 ;;                  1    wreg      void 
   793 ;; Registers used:
   794 ;;		wreg, status,2
   795 ;; Tracked objects:
   796 ;;		On entry : 0/0
   797 ;;		On exit  : 0/0
   798 ;;		Unchanged: 0/0
   799 ;; Data sizes:     COMRAM   BANK0   BANK1   BANK2   BANK3   BANK4   BANK5   BANK6   BANK7   BANK8   BANK9  BANK10  BANK1
      +1  BANK12  BANK13  BANK14
   800 ;;      Params:         0       0       0       0       0       0       0       0       0       0       0       0       
      +0       0       0       0
   801 ;;      Locals:         0       0       0       0       0       0       0       0       0       0       0       0       
      +0       0       0       0
   802 ;;      Temps:          0       0       0       0       0       0       0       0       0       0       0       0       
      +0       0       0       0
   803 ;;      Totals:         0       0       0       0       0       0       0       0       0       0       0       0       
      +0       0       0       0
   804 ;;Total ram usage:        0 bytes
   805 ;; Hardware stack levels used: 1
   806 ;; Hardware stack levels required when called: 4
   807 ;; This function calls:
   808 ;;		Nothing
   809 ;; This function is called by:
   810 ;;		_SYSTEM_Initialize
   811 ;; This function uses a non-reentrant model
   812 ;;
   813                           
   814                           	psect	text7
   815   0012FA                     __ptext7:
   816                           	callstack 0
   817   0012FA                     _OSCILLATOR_Initialize:
   818                           	callstack 25
   819   0012FA                     
   820                           ;mcc_generated_files/mcc.c: 67:     OSCCON = 0x30;
   821   0012FA  0E30               	movlw	48
   822   0012FC  6ED3               	movwf	211,c	;volatile
   823                           
   824                           ;mcc_generated_files/mcc.c: 69:     OSCCON2 = 0x00;
   825   0012FE  0E00               	movlw	0
   826   001300  6ED2               	movwf	210,c	;volatile
   827                           
   828                           ;mcc_generated_files/mcc.c: 71:     OSCTUNE = 0x00;
   829   001302  0E00               	movlw	0
   830   001304  6E9B               	movwf	155,c	;volatile
   831                           
   832                           ;mcc_generated_files/mcc.c: 73:     REFOCON = 0x00;
   833   001306  0E00               	movlw	0
   834   001308  6E9A               	movwf	154,c	;volatile
   835   00130A  0012               	return		;funcret
   836   00130C                     __end_of_OSCILLATOR_Initialize:
   837                           	callstack 0
   838                           
   839 ;; *************** function _INTERRUPT_Initialize *****************
   840 ;; Defined at:
   841 ;;		line 52 in file "mcc_generated_files/interrupt_manager.c"
   842 ;; Parameters:    Size  Location     Type
   843 ;;		None
   844 ;; Auto vars:     Size  Location     Type
   845 ;;		None
   846 ;; Return value:  Size  Location     Type
   847 ;;                  1    wreg      void 
   848 ;; Registers used:
   849 ;;		None
   850 ;; Tracked objects:
   851 ;;		On entry : 0/0
   852 ;;		On exit  : 0/0
   853 ;;		Unchanged: 0/0
   854 ;; Data sizes:     COMRAM   BANK0   BANK1   BANK2   BANK3   BANK4   BANK5   BANK6   BANK7   BANK8   BANK9  BANK10  BANK1
      +1  BANK12  BANK13  BANK14
   855 ;;      Params:         0       0       0       0       0       0       0       0       0       0       0       0       
      +0       0       0       0
   856 ;;      Locals:         0       0       0       0       0       0       0       0       0       0       0       0       
      +0       0       0       0
   857 ;;      Temps:          0       0       0       0       0       0       0       0       0       0       0       0       
      +0       0       0       0
   858 ;;      Totals:         0       0       0       0       0       0       0       0       0       0       0       0       
      +0       0       0       0
   859 ;;Total ram usage:        0 bytes
   860 ;; Hardware stack levels used: 1
   861 ;; Hardware stack levels required when called: 4
   862 ;; This function calls:
   863 ;;		Nothing
   864 ;; This function is called by:
   865 ;;		_SYSTEM_Initialize
   866 ;; This function uses a non-reentrant model
   867 ;;
   868                           
   869                           	psect	text8
   870   0013B4                     __ptext8:
   871                           	callstack 0
   872   0013B4                     _INTERRUPT_Initialize:
   873                           	callstack 25
   874   0013B4                     
   875                           ;mcc_generated_files/interrupt_manager.c: 55:     RCONbits.IPEN = 0;
   876   0013B4  9ED0               	bcf	208,7,c	;volatile
   877   0013B6  0012               	return		;funcret
   878   0013B8                     __end_of_INTERRUPT_Initialize:
   879                           	callstack 0
   880                           
   881 ;; *************** function _EUSART2_Initialize *****************
   882 ;; Defined at:
   883 ;;		line 88 in file "mcc_generated_files/eusart2.c"
   884 ;; Parameters:    Size  Location     Type
   885 ;;		None
   886 ;; Auto vars:     Size  Location     Type
   887 ;;		None
   888 ;; Return value:  Size  Location     Type
   889 ;;                  1    wreg      void 
   890 ;; Registers used:
   891 ;;		wreg, status,2, status,0, cstack
   892 ;; Tracked objects:
   893 ;;		On entry : 0/0
   894 ;;		On exit  : 0/0
   895 ;;		Unchanged: 0/0
   896 ;; Data sizes:     COMRAM   BANK0   BANK1   BANK2   BANK3   BANK4   BANK5   BANK6   BANK7   BANK8   BANK9  BANK10  BANK1
      +1  BANK12  BANK13  BANK14
   897 ;;      Params:         0       0       0       0       0       0       0       0       0       0       0       0       
      +0       0       0       0
   898 ;;      Locals:         0       0       0       0       0       0       0       0       0       0       0       0       
      +0       0       0       0
   899 ;;      Temps:          0       0       0       0       0       0       0       0       0       0       0       0       
      +0       0       0       0
   900 ;;      Totals:         0       0       0       0       0       0       0       0       0       0       0       0       
      +0       0       0       0
   901 ;;Total ram usage:        0 bytes
   902 ;; Hardware stack levels used: 1
   903 ;; Hardware stack levels required when called: 5
   904 ;; This function calls:
   905 ;;		_EUSART2_SetErrorHandler
   906 ;;		_EUSART2_SetFramingErrorHandler
   907 ;;		_EUSART2_SetOverrunErrorHandler
   908 ;;		_EUSART2_SetRxInterruptHandler
   909 ;;		_EUSART2_SetTxInterruptHandler
   910 ;; This function is called by:
   911 ;;		_SYSTEM_Initialize
   912 ;; This function uses a non-reentrant model
   913 ;;
   914                           
   915                           	psect	text9
   916   001056                     __ptext9:
   917                           	callstack 0
   918   001056                     _EUSART2_Initialize:
   919                           	callstack 24
   920   001056                     
   921                           ;mcc_generated_files/eusart2.c: 91:     PIE3bits.RC2IE = 0;
   922   001056  9AA3               	bcf	163,5,c	;volatile
   923   001058                     
   924                           ;mcc_generated_files/eusart2.c: 92:     EUSART2_SetRxInterruptHandler(EUSART2_Receive_IS
      +                          R);
   925   001058  0E02               	movlw	low _EUSART2_Receive_ISR
   926   00105A  6E59               	movwf	EUSART2_SetRxInterruptHandler@interruptHandler^0,c
   927   00105C  0E0F               	movlw	high _EUSART2_Receive_ISR
   928   00105E  6E5A               	movwf	(EUSART2_SetRxInterruptHandler@interruptHandler+1)^0,c
   929   001060  ECA1  F009         	call	_EUSART2_SetRxInterruptHandler	;wreg free
   930   001064                     
   931                           ;mcc_generated_files/eusart2.c: 93:     PIE3bits.TX2IE = 0;
   932   001064  98A3               	bcf	163,4,c	;volatile
   933                           
   934                           ;mcc_generated_files/eusart2.c: 94:     EUSART2_SetTxInterruptHandler(EUSART2_Transmit_I
      +                          SR);
   935   001066  0E90               	movlw	low _EUSART2_Transmit_ISR
   936   001068  6E59               	movwf	EUSART2_SetTxInterruptHandler@interruptHandler^0,c
   937   00106A  0E11               	movlw	high _EUSART2_Transmit_ISR
   938   00106C  6E5A               	movwf	(EUSART2_SetTxInterruptHandler@interruptHandler+1)^0,c
   939   00106E  EC9C  F009         	call	_EUSART2_SetTxInterruptHandler	;wreg free
   940   001072                     
   941                           ;mcc_generated_files/eusart2.c: 98:     BAUDCON2 = 0x08;
   942   001072  0E08               	movlw	8
   943   001074  6EB9               	movwf	185,c	;volatile
   944   001076                     
   945                           ;mcc_generated_files/eusart2.c: 101:     RCSTA2 = 0x90;
   946   001076  0E90               	movlw	144
   947   001078  6EA6               	movwf	166,c	;volatile
   948   00107A                     
   949                           ;mcc_generated_files/eusart2.c: 104:     TXSTA2 = 0x26;
   950   00107A  0E26               	movlw	38
   951   00107C  6EBA               	movwf	186,c	;volatile
   952   00107E                     
   953                           ;mcc_generated_files/eusart2.c: 107:     SPBRG2 = 0x19;
   954   00107E  0E19               	movlw	25
   955   001080  6E7B               	movwf	123,c	;volatile
   956   001082                     
   957                           ;mcc_generated_files/eusart2.c: 110:     SPBRGH2 = 0x00;
   958   001082  0E00               	movlw	0
   959   001084  6E7C               	movwf	124,c	;volatile
   960   001086                     
   961                           ;mcc_generated_files/eusart2.c: 113:     EUSART2_SetFramingErrorHandler(EUSART2_DefaultF
      +                          ramingErrorHandler);
   962   001086  0EB8               	movlw	low _EUSART2_DefaultFramingErrorHandler
   963   001088  6E59               	movwf	EUSART2_SetFramingErrorHandler@interruptHandler^0,c
   964   00108A  0E13               	movlw	high _EUSART2_DefaultFramingErrorHandler
   965   00108C  6E5A               	movwf	(EUSART2_SetFramingErrorHandler@interruptHandler+1)^0,c
   966   00108E  ECAB  F009         	call	_EUSART2_SetFramingErrorHandler	;wreg free
   967   001092                     
   968                           ;mcc_generated_files/eusart2.c: 114:     EUSART2_SetOverrunErrorHandler(EUSART2_DefaultO
      +                          verrunErrorHandler);
   969   001092  0E9C               	movlw	low _EUSART2_DefaultOverrunErrorHandler
   970   001094  6E59               	movwf	EUSART2_SetOverrunErrorHandler@interruptHandler^0,c
   971   001096  0E13               	movlw	high _EUSART2_DefaultOverrunErrorHandler
   972   001098  6E5A               	movwf	(EUSART2_SetOverrunErrorHandler@interruptHandler+1)^0,c
   973   00109A  ECA6  F009         	call	_EUSART2_SetOverrunErrorHandler	;wreg free
   974   00109E                     
   975                           ;mcc_generated_files/eusart2.c: 115:     EUSART2_SetErrorHandler(EUSART2_DefaultErrorHan
      +                          dler);
   976   00109E  0EA2               	movlw	low _EUSART2_DefaultErrorHandler
   977   0010A0  6E59               	movwf	EUSART2_SetErrorHandler@interruptHandler^0,c
   978   0010A2  0E13               	movlw	high _EUSART2_DefaultErrorHandler
   979   0010A4  6E5A               	movwf	(EUSART2_SetErrorHandler@interruptHandler+1)^0,c
   980   0010A6  ECB0  F009         	call	_EUSART2_SetErrorHandler	;wreg free
   981                           
   982                           ;mcc_generated_files/eusart2.c: 117:     eusart2RxLastError.status = 0;
   983   0010AA  0E00               	movlw	0
   984   0010AC  6E33               	movwf	_eusart2RxLastError^0,c	;volatile
   985                           
   986                           ;mcc_generated_files/eusart2.c: 120:     eusart2TxHead = 0;
   987   0010AE  0E00               	movlw	0
   988   0010B0  6E39               	movwf	_eusart2TxHead^0,c	;volatile
   989                           
   990                           ;mcc_generated_files/eusart2.c: 121:     eusart2TxTail = 0;
   991   0010B2  0E00               	movlw	0
   992   0010B4  6E38               	movwf	_eusart2TxTail^0,c	;volatile
   993                           
   994                           ;mcc_generated_files/eusart2.c: 122:     eusart2TxBufferRemaining = sizeof(eusart2TxBuff
      +                          er);
   995   0010B6  0E08               	movlw	8
   996   0010B8  6E37               	movwf	_eusart2TxBufferRemaining^0,c	;volatile
   997                           
   998                           ;mcc_generated_files/eusart2.c: 124:     eusart2RxHead = 0;
   999   0010BA  0E00               	movlw	0
  1000   0010BC  6E36               	movwf	_eusart2RxHead^0,c	;volatile
  1001                           
  1002                           ;mcc_generated_files/eusart2.c: 125:     eusart2RxTail = 0;
  1003   0010BE  0E00               	movlw	0
  1004   0010C0  6E35               	movwf	_eusart2RxTail^0,c	;volatile
  1005                           
  1006                           ;mcc_generated_files/eusart2.c: 126:     eusart2RxCount = 0;
  1007   0010C2  0E00               	movlw	0
  1008   0010C4  6E34               	movwf	_eusart2RxCount^0,c	;volatile
  1009   0010C6                     
  1010                           ;mcc_generated_files/eusart2.c: 129:     PIE3bits.RC2IE = 1;
  1011   0010C6  8AA3               	bsf	163,5,c	;volatile
  1012   0010C8  0012               	return		;funcret
  1013   0010CA                     __end_of_EUSART2_Initialize:
  1014                           	callstack 0
  1015                           
  1016 ;; *************** function _EUSART2_SetTxInterruptHandler *****************
  1017 ;; Defined at:
  1018 ;;		line 276 in file "mcc_generated_files/eusart2.c"
  1019 ;; Parameters:    Size  Location     Type
  1020 ;;  interruptHan    2    4[COMRAM] PTR FTN()void 
  1021 ;;		 -> EUSART2_Transmit_ISR(1), 
  1022 ;; Auto vars:     Size  Location     Type
  1023 ;;		None
  1024 ;; Return value:  Size  Location     Type
  1025 ;;                  1    wreg      void 
  1026 ;; Registers used:
  1027 ;;		wreg, status,2, status,0
  1028 ;; Tracked objects:
  1029 ;;		On entry : 0/0
  1030 ;;		On exit  : 0/0
  1031 ;;		Unchanged: 0/0
  1032 ;; Data sizes:     COMRAM   BANK0   BANK1   BANK2   BANK3   BANK4   BANK5   BANK6   BANK7   BANK8   BANK9  BANK10  BANK1
      +1  BANK12  BANK13  BANK14
  1033 ;;      Params:         2       0       0       0       0       0       0       0       0       0       0       0       
      +0       0       0       0
  1034 ;;      Locals:         0       0       0       0       0       0       0       0       0       0       0       0       
      +0       0       0       0
  1035 ;;      Temps:          0       0       0       0       0       0       0       0       0       0       0       0       
      +0       0       0       0
  1036 ;;      Totals:         2       0       0       0       0       0       0       0       0       0       0       0       
      +0       0       0       0
  1037 ;;Total ram usage:        2 bytes
  1038 ;; Hardware stack levels used: 1
  1039 ;; Hardware stack levels required when called: 4
  1040 ;; This function calls:
  1041 ;;		Nothing
  1042 ;; This function is called by:
  1043 ;;		_EUSART2_Initialize
  1044 ;; This function uses a non-reentrant model
  1045 ;;
  1046                           
  1047                           	psect	text10
  1048   001338                     __ptext10:
  1049                           	callstack 0
  1050   001338                     _EUSART2_SetTxInterruptHandler:
  1051                           	callstack 24
  1052   001338                     
  1053                           ;mcc_generated_files/eusart2.c: 277:     EUSART2_TxDefaultInterruptHandler = interruptHa
      +                          ndler;
  1054   001338  C059  F049         	movff	EUSART2_SetTxInterruptHandler@interruptHandler,_EUSART2_TxDefaultInterruptHandler
  1055   00133C  C05A  F04A         	movff	EUSART2_SetTxInterruptHandler@interruptHandler+1,_EUSART2_TxDefaultInterruptHandl
      +                          er+1
  1056   001340  0012               	return		;funcret
  1057   001342                     __end_of_EUSART2_SetTxInterruptHandler:
  1058                           	callstack 0
  1059                           
  1060 ;; *************** function _EUSART2_SetRxInterruptHandler *****************
  1061 ;; Defined at:
  1062 ;;		line 280 in file "mcc_generated_files/eusart2.c"
  1063 ;; Parameters:    Size  Location     Type
  1064 ;;  interruptHan    2    4[COMRAM] PTR FTN()void 
  1065 ;;		 -> EUSART2_Receive_ISR(1), 
  1066 ;; Auto vars:     Size  Location     Type
  1067 ;;		None
  1068 ;; Return value:  Size  Location     Type
  1069 ;;                  1    wreg      void 
  1070 ;; Registers used:
  1071 ;;		wreg, status,2, status,0
  1072 ;; Tracked objects:
  1073 ;;		On entry : 0/0
  1074 ;;		On exit  : 0/0
  1075 ;;		Unchanged: 0/0
  1076 ;; Data sizes:     COMRAM   BANK0   BANK1   BANK2   BANK3   BANK4   BANK5   BANK6   BANK7   BANK8   BANK9  BANK10  BANK1
      +1  BANK12  BANK13  BANK14
  1077 ;;      Params:         2       0       0       0       0       0       0       0       0       0       0       0       
      +0       0       0       0
  1078 ;;      Locals:         0       0       0       0       0       0       0       0       0       0       0       0       
      +0       0       0       0
  1079 ;;      Temps:          0       0       0       0       0       0       0       0       0       0       0       0       
      +0       0       0       0
  1080 ;;      Totals:         2       0       0       0       0       0       0       0       0       0       0       0       
      +0       0       0       0
  1081 ;;Total ram usage:        2 bytes
  1082 ;; Hardware stack levels used: 1
  1083 ;; Hardware stack levels required when called: 4
  1084 ;; This function calls:
  1085 ;;		Nothing
  1086 ;; This function is called by:
  1087 ;;		_EUSART2_Initialize
  1088 ;; This function uses a non-reentrant model
  1089 ;;
  1090                           
  1091                           	psect	text11
  1092   001342                     __ptext11:
  1093                           	callstack 0
  1094   001342                     _EUSART2_SetRxInterruptHandler:
  1095                           	callstack 24
  1096   001342                     
  1097                           ;mcc_generated_files/eusart2.c: 281:     EUSART2_RxDefaultInterruptHandler = interruptHa
      +                          ndler;
  1098   001342  C059  F047         	movff	EUSART2_SetRxInterruptHandler@interruptHandler,_EUSART2_RxDefaultInterruptHandler
  1099   001346  C05A  F048         	movff	EUSART2_SetRxInterruptHandler@interruptHandler+1,_EUSART2_RxDefaultInterruptHandl
      +                          er+1
  1100   00134A  0012               	return		;funcret
  1101   00134C                     __end_of_EUSART2_SetRxInterruptHandler:
  1102                           	callstack 0
  1103                           
  1104 ;; *************** function _EUSART2_SetOverrunErrorHandler *****************
  1105 ;; Defined at:
  1106 ;;		line 268 in file "mcc_generated_files/eusart2.c"
  1107 ;; Parameters:    Size  Location     Type
  1108 ;;  interruptHan    2    4[COMRAM] PTR FTN()void 
  1109 ;;		 -> EUSART2_DefaultOverrunErrorHandler(1), 
  1110 ;; Auto vars:     Size  Location     Type
  1111 ;;		None
  1112 ;; Return value:  Size  Location     Type
  1113 ;;                  1    wreg      void 
  1114 ;; Registers used:
  1115 ;;		wreg, status,2, status,0
  1116 ;; Tracked objects:
  1117 ;;		On entry : 0/0
  1118 ;;		On exit  : 0/0
  1119 ;;		Unchanged: 0/0
  1120 ;; Data sizes:     COMRAM   BANK0   BANK1   BANK2   BANK3   BANK4   BANK5   BANK6   BANK7   BANK8   BANK9  BANK10  BANK1
      +1  BANK12  BANK13  BANK14
  1121 ;;      Params:         2       0       0       0       0       0       0       0       0       0       0       0       
      +0       0       0       0
  1122 ;;      Locals:         0       0       0       0       0       0       0       0       0       0       0       0       
      +0       0       0       0
  1123 ;;      Temps:          0       0       0       0       0       0       0       0       0       0       0       0       
      +0       0       0       0
  1124 ;;      Totals:         2       0       0       0       0       0       0       0       0       0       0       0       
      +0       0       0       0
  1125 ;;Total ram usage:        2 bytes
  1126 ;; Hardware stack levels used: 1
  1127 ;; Hardware stack levels required when called: 4
  1128 ;; This function calls:
  1129 ;;		Nothing
  1130 ;; This function is called by:
  1131 ;;		_EUSART2_Initialize
  1132 ;; This function uses a non-reentrant model
  1133 ;;
  1134                           
  1135                           	psect	text12
  1136   00134C                     __ptext12:
  1137                           	callstack 0
  1138   00134C                     _EUSART2_SetOverrunErrorHandler:
  1139                           	callstack 24
  1140   00134C                     
  1141                           ;mcc_generated_files/eusart2.c: 269:     EUSART2_OverrunErrorHandler = interruptHandler;
  1142   00134C  C059  F043         	movff	EUSART2_SetOverrunErrorHandler@interruptHandler,_EUSART2_OverrunErrorHandler
  1143   001350  C05A  F044         	movff	EUSART2_SetOverrunErrorHandler@interruptHandler+1,_EUSART2_OverrunErrorHandler+1
  1144   001354  0012               	return		;funcret
  1145   001356                     __end_of_EUSART2_SetOverrunErrorHandler:
  1146                           	callstack 0
  1147                           
  1148 ;; *************** function _EUSART2_SetFramingErrorHandler *****************
  1149 ;; Defined at:
  1150 ;;		line 264 in file "mcc_generated_files/eusart2.c"
  1151 ;; Parameters:    Size  Location     Type
  1152 ;;  interruptHan    2    4[COMRAM] PTR FTN()void 
  1153 ;;		 -> EUSART2_DefaultFramingErrorHandler(1), 
  1154 ;; Auto vars:     Size  Location     Type
  1155 ;;		None
  1156 ;; Return value:  Size  Location     Type
  1157 ;;                  1    wreg      void 
  1158 ;; Registers used:
  1159 ;;		wreg, status,2, status,0
  1160 ;; Tracked objects:
  1161 ;;		On entry : 0/0
  1162 ;;		On exit  : 0/0
  1163 ;;		Unchanged: 0/0
  1164 ;; Data sizes:     COMRAM   BANK0   BANK1   BANK2   BANK3   BANK4   BANK5   BANK6   BANK7   BANK8   BANK9  BANK10  BANK1
      +1  BANK12  BANK13  BANK14
  1165 ;;      Params:         2       0       0       0       0       0       0       0       0       0       0       0       
      +0       0       0       0
  1166 ;;      Locals:         0       0       0       0       0       0       0       0       0       0       0       0       
      +0       0       0       0
  1167 ;;      Temps:          0       0       0       0       0       0       0       0       0       0       0       0       
      +0       0       0       0
  1168 ;;      Totals:         2       0       0       0       0       0       0       0       0       0       0       0       
      +0       0       0       0
  1169 ;;Total ram usage:        2 bytes
  1170 ;; Hardware stack levels used: 1
  1171 ;; Hardware stack levels required when called: 4
  1172 ;; This function calls:
  1173 ;;		Nothing
  1174 ;; This function is called by:
  1175 ;;		_EUSART2_Initialize
  1176 ;; This function uses a non-reentrant model
  1177 ;;
  1178                           
  1179                           	psect	text13
  1180   001356                     __ptext13:
  1181                           	callstack 0
  1182   001356                     _EUSART2_SetFramingErrorHandler:
  1183                           	callstack 24
  1184   001356                     
  1185                           ;mcc_generated_files/eusart2.c: 265:     EUSART2_FramingErrorHandler = interruptHandler;
  1186   001356  C059  F045         	movff	EUSART2_SetFramingErrorHandler@interruptHandler,_EUSART2_FramingErrorHandler
  1187   00135A  C05A  F046         	movff	EUSART2_SetFramingErrorHandler@interruptHandler+1,_EUSART2_FramingErrorHandler+1
  1188   00135E  0012               	return		;funcret
  1189   001360                     __end_of_EUSART2_SetFramingErrorHandler:
  1190                           	callstack 0
  1191                           
  1192 ;; *************** function _EUSART2_SetErrorHandler *****************
  1193 ;; Defined at:
  1194 ;;		line 272 in file "mcc_generated_files/eusart2.c"
  1195 ;; Parameters:    Size  Location     Type
  1196 ;;  interruptHan    2    4[COMRAM] PTR FTN()void 
  1197 ;;		 -> EUSART2_DefaultErrorHandler(1), 
  1198 ;; Auto vars:     Size  Location     Type
  1199 ;;		None
  1200 ;; Return value:  Size  Location     Type
  1201 ;;                  1    wreg      void 
  1202 ;; Registers used:
  1203 ;;		wreg, status,2, status,0
  1204 ;; Tracked objects:
  1205 ;;		On entry : 0/0
  1206 ;;		On exit  : 0/0
  1207 ;;		Unchanged: 0/0
  1208 ;; Data sizes:     COMRAM   BANK0   BANK1   BANK2   BANK3   BANK4   BANK5   BANK6   BANK7   BANK8   BANK9  BANK10  BANK1
      +1  BANK12  BANK13  BANK14
  1209 ;;      Params:         2       0       0       0       0       0       0       0       0       0       0       0       
      +0       0       0       0
  1210 ;;      Locals:         0       0       0       0       0       0       0       0       0       0       0       0       
      +0       0       0       0
  1211 ;;      Temps:          0       0       0       0       0       0       0       0       0       0       0       0       
      +0       0       0       0
  1212 ;;      Totals:         2       0       0       0       0       0       0       0       0       0       0       0       
      +0       0       0       0
  1213 ;;Total ram usage:        2 bytes
  1214 ;; Hardware stack levels used: 1
  1215 ;; Hardware stack levels required when called: 4
  1216 ;; This function calls:
  1217 ;;		Nothing
  1218 ;; This function is called by:
  1219 ;;		_EUSART2_Initialize
  1220 ;; This function uses a non-reentrant model
  1221 ;;
  1222                           
  1223                           	psect	text14
  1224   001360                     __ptext14:
  1225                           	callstack 0
  1226   001360                     _EUSART2_SetErrorHandler:
  1227                           	callstack 24
  1228   001360                     
  1229                           ;mcc_generated_files/eusart2.c: 273:     EUSART2_ErrorHandler = interruptHandler;
  1230   001360  C059  F041         	movff	EUSART2_SetErrorHandler@interruptHandler,_EUSART2_ErrorHandler
  1231   001364  C05A  F042         	movff	EUSART2_SetErrorHandler@interruptHandler+1,_EUSART2_ErrorHandler+1
  1232   001368  0012               	return		;funcret
  1233   00136A                     __end_of_EUSART2_SetErrorHandler:
  1234                           	callstack 0
  1235                           
  1236 ;; *************** function _EUSART1_Initialize *****************
  1237 ;; Defined at:
  1238 ;;		line 88 in file "mcc_generated_files/eusart1.c"
  1239 ;; Parameters:    Size  Location     Type
  1240 ;;		None
  1241 ;; Auto vars:     Size  Location     Type
  1242 ;;		None
  1243 ;; Return value:  Size  Location     Type
  1244 ;;                  1    wreg      void 
  1245 ;; Registers used:
  1246 ;;		wreg, status,2, status,0, cstack
  1247 ;; Tracked objects:
  1248 ;;		On entry : 0/0
  1249 ;;		On exit  : 0/0
  1250 ;;		Unchanged: 0/0
  1251 ;; Data sizes:     COMRAM   BANK0   BANK1   BANK2   BANK3   BANK4   BANK5   BANK6   BANK7   BANK8   BANK9  BANK10  BANK1
      +1  BANK12  BANK13  BANK14
  1252 ;;      Params:         0       0       0       0       0       0       0       0       0       0       0       0       
      +0       0       0       0
  1253 ;;      Locals:         0       0       0       0       0       0       0       0       0       0       0       0       
      +0       0       0       0
  1254 ;;      Temps:          0       0       0       0       0       0       0       0       0       0       0       0       
      +0       0       0       0
  1255 ;;      Totals:         0       0       0       0       0       0       0       0       0       0       0       0       
      +0       0       0       0
  1256 ;;Total ram usage:        0 bytes
  1257 ;; Hardware stack levels used: 1
  1258 ;; Hardware stack levels required when called: 5
  1259 ;; This function calls:
  1260 ;;		_EUSART1_SetErrorHandler
  1261 ;;		_EUSART1_SetFramingErrorHandler
  1262 ;;		_EUSART1_SetOverrunErrorHandler
  1263 ;;		_EUSART1_SetRxInterruptHandler
  1264 ;;		_EUSART1_SetTxInterruptHandler
  1265 ;; This function is called by:
  1266 ;;		_SYSTEM_Initialize
  1267 ;; This function uses a non-reentrant model
  1268 ;;
  1269                           
  1270                           	psect	text15
  1271   0010CA                     __ptext15:
  1272                           	callstack 0
  1273   0010CA                     _EUSART1_Initialize:
  1274                           	callstack 24
  1275   0010CA                     
  1276                           ;mcc_generated_files/eusart1.c: 91:     PIE1bits.RC1IE = 0;
  1277   0010CA  9A9D               	bcf	157,5,c	;volatile
  1278   0010CC                     
  1279                           ;mcc_generated_files/eusart1.c: 92:     EUSART1_SetRxInterruptHandler(EUSART1_Receive_IS
      +                          R);
  1280   0010CC  0EAC               	movlw	low _EUSART1_Receive_ISR
  1281   0010CE  6E59               	movwf	EUSART1_SetRxInterruptHandler@interruptHandler^0,c
  1282   0010D0  0E0F               	movlw	high _EUSART1_Receive_ISR
  1283   0010D2  6E5A               	movwf	(EUSART1_SetRxInterruptHandler@interruptHandler+1)^0,c
  1284   0010D4  ECBA  F009         	call	_EUSART1_SetRxInterruptHandler	;wreg free
  1285   0010D8                     
  1286                           ;mcc_generated_files/eusart1.c: 93:     PIE1bits.TX1IE = 0;
  1287   0010D8  989D               	bcf	157,4,c	;volatile
  1288                           
  1289                           ;mcc_generated_files/eusart1.c: 94:     EUSART1_SetTxInterruptHandler(EUSART1_Transmit_I
      +                          SR);
  1290   0010DA  0ECC               	movlw	low _EUSART1_Transmit_ISR
  1291   0010DC  6E59               	movwf	EUSART1_SetTxInterruptHandler@interruptHandler^0,c
  1292   0010DE  0E11               	movlw	high _EUSART1_Transmit_ISR
  1293   0010E0  6E5A               	movwf	(EUSART1_SetTxInterruptHandler@interruptHandler+1)^0,c
  1294   0010E2  ECB5  F009         	call	_EUSART1_SetTxInterruptHandler	;wreg free
  1295   0010E6                     
  1296                           ;mcc_generated_files/eusart1.c: 98:     BAUDCON1 = 0x08;
  1297   0010E6  0E08               	movlw	8
  1298   0010E8  6EA7               	movwf	167,c	;volatile
  1299   0010EA                     
  1300                           ;mcc_generated_files/eusart1.c: 101:     RCSTA1 = 0x90;
  1301   0010EA  0E90               	movlw	144
  1302   0010EC  6EAB               	movwf	171,c	;volatile
  1303   0010EE                     
  1304                           ;mcc_generated_files/eusart1.c: 104:     TXSTA1 = 0x24;
  1305   0010EE  0E24               	movlw	36
  1306   0010F0  6EAC               	movwf	172,c	;volatile
  1307   0010F2                     
  1308                           ;mcc_generated_files/eusart1.c: 107:     SPBRG1 = 0x19;
  1309   0010F2  0E19               	movlw	25
  1310   0010F4  6EAF               	movwf	175,c	;volatile
  1311   0010F6                     
  1312                           ;mcc_generated_files/eusart1.c: 110:     SPBRGH1 = 0x00;
  1313   0010F6  0E00               	movlw	0
  1314   0010F8  6E7D               	movwf	125,c	;volatile
  1315   0010FA                     
  1316                           ;mcc_generated_files/eusart1.c: 113:     EUSART1_SetFramingErrorHandler(EUSART1_DefaultF
      +                          ramingErrorHandler);
  1317   0010FA  0EBA               	movlw	low _EUSART1_DefaultFramingErrorHandler
  1318   0010FC  6E59               	movwf	EUSART1_SetFramingErrorHandler@interruptHandler^0,c
  1319   0010FE  0E13               	movlw	high _EUSART1_DefaultFramingErrorHandler
  1320   001100  6E5A               	movwf	(EUSART1_SetFramingErrorHandler@interruptHandler+1)^0,c
  1321   001102  ECC4  F009         	call	_EUSART1_SetFramingErrorHandler	;wreg free
  1322   001106                     
  1323                           ;mcc_generated_files/eusart1.c: 114:     EUSART1_SetOverrunErrorHandler(EUSART1_DefaultO
      +                          verrunErrorHandler);
  1324   001106  0EA8               	movlw	low _EUSART1_DefaultOverrunErrorHandler
  1325   001108  6E59               	movwf	EUSART1_SetOverrunErrorHandler@interruptHandler^0,c
  1326   00110A  0E13               	movlw	high _EUSART1_DefaultOverrunErrorHandler
  1327   00110C  6E5A               	movwf	(EUSART1_SetOverrunErrorHandler@interruptHandler+1)^0,c
  1328   00110E  ECBF  F009         	call	_EUSART1_SetOverrunErrorHandler	;wreg free
  1329   001112                     
  1330                           ;mcc_generated_files/eusart1.c: 115:     EUSART1_SetErrorHandler(EUSART1_DefaultErrorHan
      +                          dler);
  1331   001112  0EAE               	movlw	low _EUSART1_DefaultErrorHandler
  1332   001114  6E59               	movwf	EUSART1_SetErrorHandler@interruptHandler^0,c
  1333   001116  0E13               	movlw	high _EUSART1_DefaultErrorHandler
  1334   001118  6E5A               	movwf	(EUSART1_SetErrorHandler@interruptHandler+1)^0,c
  1335   00111A  ECC9  F009         	call	_EUSART1_SetErrorHandler	;wreg free
  1336                           
  1337                           ;mcc_generated_files/eusart1.c: 117:     eusart1RxLastError.status = 0;
  1338   00111E  0E00               	movlw	0
  1339   001120  6E3A               	movwf	_eusart1RxLastError^0,c	;volatile
  1340                           
  1341                           ;mcc_generated_files/eusart1.c: 120:     eusart1TxHead = 0;
  1342   001122  0E00               	movlw	0
  1343   001124  6E40               	movwf	_eusart1TxHead^0,c	;volatile
  1344                           
  1345                           ;mcc_generated_files/eusart1.c: 121:     eusart1TxTail = 0;
  1346   001126  0E00               	movlw	0
  1347   001128  6E3F               	movwf	_eusart1TxTail^0,c	;volatile
  1348                           
  1349                           ;mcc_generated_files/eusart1.c: 122:     eusart1TxBufferRemaining = sizeof(eusart1TxBuff
      +                          er);
  1350   00112A  0E08               	movlw	8
  1351   00112C  6E3E               	movwf	_eusart1TxBufferRemaining^0,c	;volatile
  1352                           
  1353                           ;mcc_generated_files/eusart1.c: 124:     eusart1RxHead = 0;
  1354   00112E  0E00               	movlw	0
  1355   001130  6E3D               	movwf	_eusart1RxHead^0,c	;volatile
  1356                           
  1357                           ;mcc_generated_files/eusart1.c: 125:     eusart1RxTail = 0;
  1358   001132  0E00               	movlw	0
  1359   001134  6E3C               	movwf	_eusart1RxTail^0,c	;volatile
  1360                           
  1361                           ;mcc_generated_files/eusart1.c: 126:     eusart1RxCount = 0;
  1362   001136  0E00               	movlw	0
  1363   001138  6E3B               	movwf	_eusart1RxCount^0,c	;volatile
  1364   00113A                     
  1365                           ;mcc_generated_files/eusart1.c: 129:     PIE1bits.RC1IE = 1;
  1366   00113A  8A9D               	bsf	157,5,c	;volatile
  1367   00113C  0012               	return		;funcret
  1368   00113E                     __end_of_EUSART1_Initialize:
  1369                           	callstack 0
  1370                           
  1371 ;; *************** function _EUSART1_SetTxInterruptHandler *****************
  1372 ;; Defined at:
  1373 ;;		line 285 in file "mcc_generated_files/eusart1.c"
  1374 ;; Parameters:    Size  Location     Type
  1375 ;;  interruptHan    2    4[COMRAM] PTR FTN()void 
  1376 ;;		 -> EUSART1_Transmit_ISR(1), 
  1377 ;; Auto vars:     Size  Location     Type
  1378 ;;		None
  1379 ;; Return value:  Size  Location     Type
  1380 ;;                  1    wreg      void 
  1381 ;; Registers used:
  1382 ;;		wreg, status,2, status,0
  1383 ;; Tracked objects:
  1384 ;;		On entry : 0/0
  1385 ;;		On exit  : 0/0
  1386 ;;		Unchanged: 0/0
  1387 ;; Data sizes:     COMRAM   BANK0   BANK1   BANK2   BANK3   BANK4   BANK5   BANK6   BANK7   BANK8   BANK9  BANK10  BANK1
      +1  BANK12  BANK13  BANK14
  1388 ;;      Params:         2       0       0       0       0       0       0       0       0       0       0       0       
      +0       0       0       0
  1389 ;;      Locals:         0       0       0       0       0       0       0       0       0       0       0       0       
      +0       0       0       0
  1390 ;;      Temps:          0       0       0       0       0       0       0       0       0       0       0       0       
      +0       0       0       0
  1391 ;;      Totals:         2       0       0       0       0       0       0       0       0       0       0       0       
      +0       0       0       0
  1392 ;;Total ram usage:        2 bytes
  1393 ;; Hardware stack levels used: 1
  1394 ;; Hardware stack levels required when called: 4
  1395 ;; This function calls:
  1396 ;;		Nothing
  1397 ;; This function is called by:
  1398 ;;		_EUSART1_Initialize
  1399 ;; This function uses a non-reentrant model
  1400 ;;
  1401                           
  1402                           	psect	text16
  1403   00136A                     __ptext16:
  1404                           	callstack 0
  1405   00136A                     _EUSART1_SetTxInterruptHandler:
  1406                           	callstack 24
  1407   00136A                     
  1408                           ;mcc_generated_files/eusart1.c: 286:     EUSART1_TxDefaultInterruptHandler = interruptHa
      +                          ndler;
  1409   00136A  C059  F053         	movff	EUSART1_SetTxInterruptHandler@interruptHandler,_EUSART1_TxDefaultInterruptHandler
  1410   00136E  C05A  F054         	movff	EUSART1_SetTxInterruptHandler@interruptHandler+1,_EUSART1_TxDefaultInterruptHandl
      +                          er+1
  1411   001372  0012               	return		;funcret
  1412   001374                     __end_of_EUSART1_SetTxInterruptHandler:
  1413                           	callstack 0
  1414                           
  1415 ;; *************** function _EUSART1_SetRxInterruptHandler *****************
  1416 ;; Defined at:
  1417 ;;		line 289 in file "mcc_generated_files/eusart1.c"
  1418 ;; Parameters:    Size  Location     Type
  1419 ;;  interruptHan    2    4[COMRAM] PTR FTN()void 
  1420 ;;		 -> EUSART1_Receive_ISR(1), 
  1421 ;; Auto vars:     Size  Location     Type
  1422 ;;		None
  1423 ;; Return value:  Size  Location     Type
  1424 ;;                  1    wreg      void 
  1425 ;; Registers used:
  1426 ;;		wreg, status,2, status,0
  1427 ;; Tracked objects:
  1428 ;;		On entry : 0/0
  1429 ;;		On exit  : 0/0
  1430 ;;		Unchanged: 0/0
  1431 ;; Data sizes:     COMRAM   BANK0   BANK1   BANK2   BANK3   BANK4   BANK5   BANK6   BANK7   BANK8   BANK9  BANK10  BANK1
      +1  BANK12  BANK13  BANK14
  1432 ;;      Params:         2       0       0       0       0       0       0       0       0       0       0       0       
      +0       0       0       0
  1433 ;;      Locals:         0       0       0       0       0       0       0       0       0       0       0       0       
      +0       0       0       0
  1434 ;;      Temps:          0       0       0       0       0       0       0       0       0       0       0       0       
      +0       0       0       0
  1435 ;;      Totals:         2       0       0       0       0       0       0       0       0       0       0       0       
      +0       0       0       0
  1436 ;;Total ram usage:        2 bytes
  1437 ;; Hardware stack levels used: 1
  1438 ;; Hardware stack levels required when called: 4
  1439 ;; This function calls:
  1440 ;;		Nothing
  1441 ;; This function is called by:
  1442 ;;		_EUSART1_Initialize
  1443 ;; This function uses a non-reentrant model
  1444 ;;
  1445                           
  1446                           	psect	text17
  1447   001374                     __ptext17:
  1448                           	callstack 0
  1449   001374                     _EUSART1_SetRxInterruptHandler:
  1450                           	callstack 24
  1451   001374                     
  1452                           ;mcc_generated_files/eusart1.c: 290:     EUSART1_RxDefaultInterruptHandler = interruptHa
      +                          ndler;
  1453   001374  C059  F051         	movff	EUSART1_SetRxInterruptHandler@interruptHandler,_EUSART1_RxDefaultInterruptHandler
  1454   001378  C05A  F052         	movff	EUSART1_SetRxInterruptHandler@interruptHandler+1,_EUSART1_RxDefaultInterruptHandl
      +                          er+1
  1455   00137C  0012               	return		;funcret
  1456   00137E                     __end_of_EUSART1_SetRxInterruptHandler:
  1457                           	callstack 0
  1458                           
  1459 ;; *************** function _EUSART1_SetOverrunErrorHandler *****************
  1460 ;; Defined at:
  1461 ;;		line 277 in file "mcc_generated_files/eusart1.c"
  1462 ;; Parameters:    Size  Location     Type
  1463 ;;  interruptHan    2    4[COMRAM] PTR FTN()void 
  1464 ;;		 -> EUSART1_DefaultOverrunErrorHandler(1), 
  1465 ;; Auto vars:     Size  Location     Type
  1466 ;;		None
  1467 ;; Return value:  Size  Location     Type
  1468 ;;                  1    wreg      void 
  1469 ;; Registers used:
  1470 ;;		wreg, status,2, status,0
  1471 ;; Tracked objects:
  1472 ;;		On entry : 0/0
  1473 ;;		On exit  : 0/0
  1474 ;;		Unchanged: 0/0
  1475 ;; Data sizes:     COMRAM   BANK0   BANK1   BANK2   BANK3   BANK4   BANK5   BANK6   BANK7   BANK8   BANK9  BANK10  BANK1
      +1  BANK12  BANK13  BANK14
  1476 ;;      Params:         2       0       0       0       0       0       0       0       0       0       0       0       
      +0       0       0       0
  1477 ;;      Locals:         0       0       0       0       0       0       0       0       0       0       0       0       
      +0       0       0       0
  1478 ;;      Temps:          0       0       0       0       0       0       0       0       0       0       0       0       
      +0       0       0       0
  1479 ;;      Totals:         2       0       0       0       0       0       0       0       0       0       0       0       
      +0       0       0       0
  1480 ;;Total ram usage:        2 bytes
  1481 ;; Hardware stack levels used: 1
  1482 ;; Hardware stack levels required when called: 4
  1483 ;; This function calls:
  1484 ;;		Nothing
  1485 ;; This function is called by:
  1486 ;;		_EUSART1_Initialize
  1487 ;; This function uses a non-reentrant model
  1488 ;;
  1489                           
  1490                           	psect	text18
  1491   00137E                     __ptext18:
  1492                           	callstack 0
  1493   00137E                     _EUSART1_SetOverrunErrorHandler:
  1494                           	callstack 24
  1495   00137E                     
  1496                           ;mcc_generated_files/eusart1.c: 278:     EUSART1_OverrunErrorHandler = interruptHandler;
  1497   00137E  C059  F04D         	movff	EUSART1_SetOverrunErrorHandler@interruptHandler,_EUSART1_OverrunErrorHandler
  1498   001382  C05A  F04E         	movff	EUSART1_SetOverrunErrorHandler@interruptHandler+1,_EUSART1_OverrunErrorHandler+1
  1499   001386  0012               	return		;funcret
  1500   001388                     __end_of_EUSART1_SetOverrunErrorHandler:
  1501                           	callstack 0
  1502                           
  1503 ;; *************** function _EUSART1_SetFramingErrorHandler *****************
  1504 ;; Defined at:
  1505 ;;		line 273 in file "mcc_generated_files/eusart1.c"
  1506 ;; Parameters:    Size  Location     Type
  1507 ;;  interruptHan    2    4[COMRAM] PTR FTN()void 
  1508 ;;		 -> EUSART1_DefaultFramingErrorHandler(1), 
  1509 ;; Auto vars:     Size  Location     Type
  1510 ;;		None
  1511 ;; Return value:  Size  Location     Type
  1512 ;;                  1    wreg      void 
  1513 ;; Registers used:
  1514 ;;		wreg, status,2, status,0
  1515 ;; Tracked objects:
  1516 ;;		On entry : 0/0
  1517 ;;		On exit  : 0/0
  1518 ;;		Unchanged: 0/0
  1519 ;; Data sizes:     COMRAM   BANK0   BANK1   BANK2   BANK3   BANK4   BANK5   BANK6   BANK7   BANK8   BANK9  BANK10  BANK1
      +1  BANK12  BANK13  BANK14
  1520 ;;      Params:         2       0       0       0       0       0       0       0       0       0       0       0       
      +0       0       0       0
  1521 ;;      Locals:         0       0       0       0       0       0       0       0       0       0       0       0       
      +0       0       0       0
  1522 ;;      Temps:          0       0       0       0       0       0       0       0       0       0       0       0       
      +0       0       0       0
  1523 ;;      Totals:         2       0       0       0       0       0       0       0       0       0       0       0       
      +0       0       0       0
  1524 ;;Total ram usage:        2 bytes
  1525 ;; Hardware stack levels used: 1
  1526 ;; Hardware stack levels required when called: 4
  1527 ;; This function calls:
  1528 ;;		Nothing
  1529 ;; This function is called by:
  1530 ;;		_EUSART1_Initialize
  1531 ;; This function uses a non-reentrant model
  1532 ;;
  1533                           
  1534                           	psect	text19
  1535   001388                     __ptext19:
  1536                           	callstack 0
  1537   001388                     _EUSART1_SetFramingErrorHandler:
  1538                           	callstack 24
  1539   001388                     
  1540                           ;mcc_generated_files/eusart1.c: 274:     EUSART1_FramingErrorHandler = interruptHandler;
  1541   001388  C059  F04F         	movff	EUSART1_SetFramingErrorHandler@interruptHandler,_EUSART1_FramingErrorHandler
  1542   00138C  C05A  F050         	movff	EUSART1_SetFramingErrorHandler@interruptHandler+1,_EUSART1_FramingErrorHandler+1
  1543   001390  0012               	return		;funcret
  1544   001392                     __end_of_EUSART1_SetFramingErrorHandler:
  1545                           	callstack 0
  1546                           
  1547 ;; *************** function _EUSART1_SetErrorHandler *****************
  1548 ;; Defined at:
  1549 ;;		line 281 in file "mcc_generated_files/eusart1.c"
  1550 ;; Parameters:    Size  Location     Type
  1551 ;;  interruptHan    2    4[COMRAM] PTR FTN()void 
  1552 ;;		 -> EUSART1_DefaultErrorHandler(1), 
  1553 ;; Auto vars:     Size  Location     Type
  1554 ;;		None
  1555 ;; Return value:  Size  Location     Type
  1556 ;;                  1    wreg      void 
  1557 ;; Registers used:
  1558 ;;		wreg, status,2, status,0
  1559 ;; Tracked objects:
  1560 ;;		On entry : 0/0
  1561 ;;		On exit  : 0/0
  1562 ;;		Unchanged: 0/0
  1563 ;; Data sizes:     COMRAM   BANK0   BANK1   BANK2   BANK3   BANK4   BANK5   BANK6   BANK7   BANK8   BANK9  BANK10  BANK1
      +1  BANK12  BANK13  BANK14
  1564 ;;      Params:         2       0       0       0       0       0       0       0       0       0       0       0       
      +0       0       0       0
  1565 ;;      Locals:         0       0       0       0       0       0       0       0       0       0       0       0       
      +0       0       0       0
  1566 ;;      Temps:          0       0       0       0       0       0       0       0       0       0       0       0       
      +0       0       0       0
  1567 ;;      Totals:         2       0       0       0       0       0       0       0       0       0       0       0       
      +0       0       0       0
  1568 ;;Total ram usage:        2 bytes
  1569 ;; Hardware stack levels used: 1
  1570 ;; Hardware stack levels required when called: 4
  1571 ;; This function calls:
  1572 ;;		Nothing
  1573 ;; This function is called by:
  1574 ;;		_EUSART1_Initialize
  1575 ;; This function uses a non-reentrant model
  1576 ;;
  1577                           
  1578                           	psect	text20
  1579   001392                     __ptext20:
  1580                           	callstack 0
  1581   001392                     _EUSART1_SetErrorHandler:
  1582                           	callstack 24
  1583   001392                     
  1584                           ;mcc_generated_files/eusart1.c: 282:     EUSART1_ErrorHandler = interruptHandler;
  1585   001392  C059  F04B         	movff	EUSART1_SetErrorHandler@interruptHandler,_EUSART1_ErrorHandler
  1586   001396  C05A  F04C         	movff	EUSART1_SetErrorHandler@interruptHandler+1,_EUSART1_ErrorHandler+1
  1587   00139A  0012               	return		;funcret
  1588   00139C                     __end_of_EUSART1_SetErrorHandler:
  1589                           	callstack 0
  1590                           
  1591 ;; *************** function _ECCP1_Initialize *****************
  1592 ;; Defined at:
  1593 ;;		line 49 in file "mcc_generated_files/eccp1.c"
  1594 ;; Parameters:    Size  Location     Type
  1595 ;;		None
  1596 ;; Auto vars:     Size  Location     Type
  1597 ;;		None
  1598 ;; Return value:  Size  Location     Type
  1599 ;;                  1    wreg      void 
  1600 ;; Registers used:
  1601 ;;		wreg, status,2
  1602 ;; Tracked objects:
  1603 ;;		On entry : 0/0
  1604 ;;		On exit  : 0/0
  1605 ;;		Unchanged: 0/0
  1606 ;; Data sizes:     COMRAM   BANK0   BANK1   BANK2   BANK3   BANK4   BANK5   BANK6   BANK7   BANK8   BANK9  BANK10  BANK1
      +1  BANK12  BANK13  BANK14
  1607 ;;      Params:         0       0       0       0       0       0       0       0       0       0       0       0       
      +0       0       0       0
  1608 ;;      Locals:         0       0       0       0       0       0       0       0       0       0       0       0       
      +0       0       0       0
  1609 ;;      Temps:          0       0       0       0       0       0       0       0       0       0       0       0       
      +0       0       0       0
  1610 ;;      Totals:         0       0       0       0       0       0       0       0       0       0       0       0       
      +0       0       0       0
  1611 ;;Total ram usage:        0 bytes
  1612 ;; Hardware stack levels used: 1
  1613 ;; Hardware stack levels required when called: 4
  1614 ;; This function calls:
  1615 ;;		Nothing
  1616 ;; This function is called by:
  1617 ;;		_SYSTEM_Initialize
  1618 ;; This function uses a non-reentrant model
  1619 ;;
  1620                           
  1621                           	psect	text21
  1622   00132A                     __ptext21:
  1623                           	callstack 0
  1624   00132A                     _ECCP1_Initialize:
  1625                           	callstack 25
  1626   00132A                     
  1627                           ;mcc_generated_files/eccp1.c: 53:  CCP1CON = 0x00;
  1628   00132A  0E00               	movlw	0
  1629   00132C  6EBB               	movwf	187,c	;volatile
  1630                           
  1631                           ;mcc_generated_files/eccp1.c: 56:  CCPR1H = 0x00;
  1632   00132E  0E00               	movlw	0
  1633   001330  6EBD               	movwf	189,c	;volatile
  1634                           
  1635                           ;mcc_generated_files/eccp1.c: 59:  CCPR1L = 0x00;
  1636   001332  0E00               	movlw	0
  1637   001334  6EBC               	movwf	188,c	;volatile
  1638   001336  0012               	return		;funcret
  1639   001338                     __end_of_ECCP1_Initialize:
  1640                           	callstack 0
  1641                           
  1642 ;; *************** function _ADC_Initialize *****************
  1643 ;; Defined at:
  1644 ;;		line 62 in file "mcc_generated_files/adc.c"
  1645 ;; Parameters:    Size  Location     Type
  1646 ;;		None
  1647 ;; Auto vars:     Size  Location     Type
  1648 ;;		None
  1649 ;; Return value:  Size  Location     Type
  1650 ;;                  1    wreg      void 
  1651 ;; Registers used:
  1652 ;;		wreg, status,2
  1653 ;; Tracked objects:
  1654 ;;		On entry : 0/0
  1655 ;;		On exit  : 0/0
  1656 ;;		Unchanged: 0/0
  1657 ;; Data sizes:     COMRAM   BANK0   BANK1   BANK2   BANK3   BANK4   BANK5   BANK6   BANK7   BANK8   BANK9  BANK10  BANK1
      +1  BANK12  BANK13  BANK14
  1658 ;;      Params:         0       0       0       0       0       0       0       0       0       0       0       0       
      +0       0       0       0
  1659 ;;      Locals:         0       0       0       0       0       0       0       0       0       0       0       0       
      +0       0       0       0
  1660 ;;      Temps:          0       0       0       0       0       0       0       0       0       0       0       0       
      +0       0       0       0
  1661 ;;      Totals:         0       0       0       0       0       0       0       0       0       0       0       0       
      +0       0       0       0
  1662 ;;Total ram usage:        0 bytes
  1663 ;; Hardware stack levels used: 1
  1664 ;; Hardware stack levels required when called: 4
  1665 ;; This function calls:
  1666 ;;		Nothing
  1667 ;; This function is called by:
  1668 ;;		_SYSTEM_Initialize
  1669 ;; This function uses a non-reentrant model
  1670 ;;
  1671                           
  1672                           	psect	text22
  1673   0012BE                     __ptext22:
  1674                           	callstack 0
  1675   0012BE                     _ADC_Initialize:
  1676                           	callstack 25
  1677   0012BE                     
  1678                           ;mcc_generated_files/adc.c: 67:     ADCON0 = 0x01;
  1679   0012BE  0E01               	movlw	1
  1680   0012C0  6EC2               	movwf	194,c	;volatile
  1681                           
  1682                           ;mcc_generated_files/adc.c: 70:     ADCON1 = 0x00;
  1683   0012C2  0E00               	movlw	0
  1684   0012C4  6EC1               	movwf	193,c	;volatile
  1685                           
  1686                           ;mcc_generated_files/adc.c: 73:     ADCON2 = 0x00;
  1687   0012C6  0E00               	movlw	0
  1688   0012C8  6EC0               	movwf	192,c	;volatile
  1689                           
  1690                           ;mcc_generated_files/adc.c: 76:     ADRESH = 0x00;
  1691   0012CA  0E00               	movlw	0
  1692   0012CC  6EC4               	movwf	196,c	;volatile
  1693                           
  1694                           ;mcc_generated_files/adc.c: 79:     ADRESL = 0x00;
  1695   0012CE  0E00               	movlw	0
  1696   0012D0  6EC3               	movwf	195,c	;volatile
  1697   0012D2  0012               	return		;funcret
  1698   0012D4                     __end_of_ADC_Initialize:
  1699                           	callstack 0
  1700                           
  1701 ;; *************** function _INTERRUPT_InterruptManager *****************
  1702 ;; Defined at:
  1703 ;;		line 58 in file "mcc_generated_files/interrupt_manager.c"
  1704 ;; Parameters:    Size  Location     Type
  1705 ;;		None
  1706 ;; Auto vars:     Size  Location     Type
  1707 ;;		None
  1708 ;; Return value:  Size  Location     Type
  1709 ;;                  1    wreg      void 
  1710 ;; Registers used:
  1711 ;;		wreg, fsr2l, fsr2h, status,2, status,0, pcl, pclath, pclatu, tosl, cstack
  1712 ;; Tracked objects:
  1713 ;;		On entry : 0/0
  1714 ;;		On exit  : 0/0
  1715 ;;		Unchanged: 0/0
  1716 ;; Data sizes:     COMRAM   BANK0   BANK1   BANK2   BANK3   BANK4   BANK5   BANK6   BANK7   BANK8   BANK9  BANK10  BANK1
      +1  BANK12  BANK13  BANK14
  1717 ;;      Params:         0       0       0       0       0       0       0       0       0       0       0       0       
      +0       0       0       0
  1718 ;;      Locals:         0       0       0       0       0       0       0       0       0       0       0       0       
      +0       0       0       0
  1719 ;;      Temps:          4       0       0       0       0       0       0       0       0       0       0       0       
      +0       0       0       0
  1720 ;;      Totals:         4       0       0       0       0       0       0       0       0       0       0       0       
      +0       0       0       0
  1721 ;;Total ram usage:        4 bytes
  1722 ;; Hardware stack levels used: 1
  1723 ;; Hardware stack levels required when called: 3
  1724 ;; This function calls:
  1725 ;;		NULL
  1726 ;;		_EUSART1_Receive_ISR
  1727 ;;		_EUSART1_Transmit_ISR
  1728 ;;		_EUSART2_Receive_ISR
  1729 ;;		_EUSART2_Transmit_ISR
  1730 ;; This function is called by:
  1731 ;;		Interrupt level 2
  1732 ;; This function uses a non-reentrant model
  1733 ;;
  1734                           
  1735                           	psect	intcode
  1736   000008                     __pintcode:
  1737                           	callstack 0
  1738   000008                     _INTERRUPT_InterruptManager:
  1739                           	callstack 24
  1740                           
  1741                           ;incstack = 0
  1742   000008  825B               	bsf	int$flags,1,c	;set compiler interrupt flag (level 2)
  1743   00000A  CFFA F055          	movff	pclath,??_INTERRUPT_InterruptManager
  1744   00000E  CFFB F056          	movff	pclatu,??_INTERRUPT_InterruptManager+1
  1745   000012  CFD9 F057          	movff	fsr2l,??_INTERRUPT_InterruptManager+2
  1746   000016  CFDA F058          	movff	fsr2h,??_INTERRUPT_InterruptManager+3
  1747   00001A                     
  1748                           ;mcc_generated_files/interrupt_manager.c: 61:     if(INTCONbits.PEIE == 1)
  1749   00001A  ACF2               	btfss	242,6,c	;volatile
  1750   00001C  EF12  F000         	goto	i2u32_41
  1751   000020  EF14  F000         	goto	i2u32_40
  1752   000024                     i2u32_41:
  1753   000024  EF88  F000         	goto	i2l515
  1754   000028                     i2u32_40:
  1755   000028                     
  1756                           ;mcc_generated_files/interrupt_manager.c: 62:     {;mcc_generated_files/interrupt_manage
      +                          r.c: 63:         if(PIE3bits.TX2IE == 1 && PIR3bits.TX2IF == 1)
  1757   000028  A8A3               	btfss	163,4,c	;volatile
  1758   00002A  EF19  F000         	goto	i2u33_41
  1759   00002E  EF1B  F000         	goto	i2u33_40
  1760   000032                     i2u33_41:
  1761   000032  EF31  F000         	goto	i2l506
  1762   000036                     i2u33_40:
  1763   000036  A8A4               	btfss	164,4,c	;volatile
  1764   000038  EF20  F000         	goto	i2u34_41
  1765   00003C  EF22  F000         	goto	i2u34_40
  1766   000040                     i2u34_41:
  1767   000040  EF31  F000         	goto	i2l506
  1768   000044                     i2u34_40:
  1769   000044                     
  1770                           ;mcc_generated_files/interrupt_manager.c: 64:         {;mcc_generated_files/interrupt_ma
      +                          nager.c: 65:             EUSART2_TxDefaultInterruptHandler();
  1771   000044  D802               	call	i2u35_48
  1772   000046  EF2F  F000         	goto	i2u35_49
  1773   00004A                     i2u35_48:
  1774   00004A  0005               	push	
  1775   00004C  6EFA               	movwf	pclath,c
  1776   00004E  5049               	movf	_EUSART2_TxDefaultInterruptHandler^0,w,c
  1777   000050  6EFD               	movwf	tosl,c
  1778   000052  504A               	movf	(_EUSART2_TxDefaultInterruptHandler+1)^0,w,c
  1779   000054  6EFE               	movwf	tosh,c
  1780   000056  50F8               	movf	tblptru,w,c
  1781   000058  6EFF               	movwf	tosu,c
  1782   00005A  50FA               	movf	pclath,w,c
  1783   00005C  0012               	return		;indir
  1784   00005E                     i2u35_49:
  1785                           
  1786                           ;mcc_generated_files/interrupt_manager.c: 66:         }
  1787   00005E  EF88  F000         	goto	i2l515
  1788   000062                     i2l506:
  1789   000062  AAA3               	btfss	163,5,c	;volatile
  1790   000064  EF36  F000         	goto	i2u36_41
  1791   000068  EF38  F000         	goto	i2u36_40
  1792   00006C                     i2u36_41:
  1793   00006C  EF4E  F000         	goto	i2l508
  1794   000070                     i2u36_40:
  1795   000070  AAA4               	btfss	164,5,c	;volatile
  1796   000072  EF3D  F000         	goto	i2u37_41
  1797   000076  EF3F  F000         	goto	i2u37_40
  1798   00007A                     i2u37_41:
  1799   00007A  EF4E  F000         	goto	i2l508
  1800   00007E                     i2u37_40:
  1801   00007E                     
  1802                           ;mcc_generated_files/interrupt_manager.c: 68:         {;mcc_generated_files/interrupt_ma
      +                          nager.c: 69:             EUSART2_RxDefaultInterruptHandler();
  1803   00007E  D802               	call	i2u38_48
  1804   000080  EF4C  F000         	goto	i2u38_49
  1805   000084                     i2u38_48:
  1806   000084  0005               	push	
  1807   000086  6EFA               	movwf	pclath,c
  1808   000088  5047               	movf	_EUSART2_RxDefaultInterruptHandler^0,w,c
  1809   00008A  6EFD               	movwf	tosl,c
  1810   00008C  5048               	movf	(_EUSART2_RxDefaultInterruptHandler+1)^0,w,c
  1811   00008E  6EFE               	movwf	tosh,c
  1812   000090  50F8               	movf	tblptru,w,c
  1813   000092  6EFF               	movwf	tosu,c
  1814   000094  50FA               	movf	pclath,w,c
  1815   000096  0012               	return		;indir
  1816   000098                     i2u38_49:
  1817                           
  1818                           ;mcc_generated_files/interrupt_manager.c: 70:         }
  1819   000098  EF88  F000         	goto	i2l515
  1820   00009C                     i2l508:
  1821   00009C  A89D               	btfss	157,4,c	;volatile
  1822   00009E  EF53  F000         	goto	i2u39_41
  1823   0000A2  EF55  F000         	goto	i2u39_40
  1824   0000A6                     i2u39_41:
  1825   0000A6  EF6B  F000         	goto	i2l510
  1826   0000AA                     i2u39_40:
  1827   0000AA  A89E               	btfss	158,4,c	;volatile
  1828   0000AC  EF5A  F000         	goto	i2u40_41
  1829   0000B0  EF5C  F000         	goto	i2u40_40
  1830   0000B4                     i2u40_41:
  1831   0000B4  EF6B  F000         	goto	i2l510
  1832   0000B8                     i2u40_40:
  1833   0000B8                     
  1834                           ;mcc_generated_files/interrupt_manager.c: 72:         {;mcc_generated_files/interrupt_ma
      +                          nager.c: 73:             EUSART1_TxDefaultInterruptHandler();
  1835   0000B8  D802               	call	i2u41_48
  1836   0000BA  EF69  F000         	goto	i2u41_49
  1837   0000BE                     i2u41_48:
  1838   0000BE  0005               	push	
  1839   0000C0  6EFA               	movwf	pclath,c
  1840   0000C2  5053               	movf	_EUSART1_TxDefaultInterruptHandler^0,w,c
  1841   0000C4  6EFD               	movwf	tosl,c
  1842   0000C6  5054               	movf	(_EUSART1_TxDefaultInterruptHandler+1)^0,w,c
  1843   0000C8  6EFE               	movwf	tosh,c
  1844   0000CA  50F8               	movf	tblptru,w,c
  1845   0000CC  6EFF               	movwf	tosu,c
  1846   0000CE  50FA               	movf	pclath,w,c
  1847   0000D0  0012               	return		;indir
  1848   0000D2                     i2u41_49:
  1849                           
  1850                           ;mcc_generated_files/interrupt_manager.c: 74:         }
  1851   0000D2  EF88  F000         	goto	i2l515
  1852   0000D6                     i2l510:
  1853   0000D6  AA9D               	btfss	157,5,c	;volatile
  1854   0000D8  EF70  F000         	goto	i2u42_41
  1855   0000DC  EF72  F000         	goto	i2u42_40
  1856   0000E0                     i2u42_41:
  1857   0000E0  EF88  F000         	goto	i2l509
  1858   0000E4                     i2u42_40:
  1859   0000E4  AA9E               	btfss	158,5,c	;volatile
  1860   0000E6  EF77  F000         	goto	i2u43_41
  1861   0000EA  EF79  F000         	goto	i2u43_40
  1862   0000EE                     i2u43_41:
  1863   0000EE  EF88  F000         	goto	i2l509
  1864   0000F2                     i2u43_40:
  1865   0000F2                     
  1866                           ;mcc_generated_files/interrupt_manager.c: 76:         {;mcc_generated_files/interrupt_ma
      +                          nager.c: 77:             EUSART1_RxDefaultInterruptHandler();
  1867   0000F2  D802               	call	i2u44_48
  1868   0000F4  EF86  F000         	goto	i2u44_49
  1869   0000F8                     i2u44_48:
  1870   0000F8  0005               	push	
  1871   0000FA  6EFA               	movwf	pclath,c
  1872   0000FC  5051               	movf	_EUSART1_RxDefaultInterruptHandler^0,w,c
  1873   0000FE  6EFD               	movwf	tosl,c
  1874   000100  5052               	movf	(_EUSART1_RxDefaultInterruptHandler+1)^0,w,c
  1875   000102  6EFE               	movwf	tosh,c
  1876   000104  50F8               	movf	tblptru,w,c
  1877   000106  6EFF               	movwf	tosu,c
  1878   000108  50FA               	movf	pclath,w,c
  1879   00010A  0012               	return		;indir
  1880   00010C                     i2u44_49:
  1881                           
  1882                           ;mcc_generated_files/interrupt_manager.c: 78:         }
  1883   00010C  EF88  F000         	goto	i2l515
  1884   000110                     i2l509:
  1885   000110                     i2l515:
  1886   000110  C058  FFDA         	movff	??_INTERRUPT_InterruptManager+3,fsr2h
  1887   000114  C057  FFD9         	movff	??_INTERRUPT_InterruptManager+2,fsr2l
  1888   000118  C056  FFFB         	movff	??_INTERRUPT_InterruptManager+1,pclatu
  1889   00011C  C055  FFFA         	movff	??_INTERRUPT_InterruptManager,pclath
  1890   000120  925B               	bcf	int$flags,1,c	;clear compiler interrupt flag (level 2)
  1891   000122  0011               	retfie		f
  1892   000124                     __end_of_INTERRUPT_InterruptManager:
  1893                           	callstack 0
  1894                           
  1895 ;; *************** function _EUSART2_Transmit_ISR *****************
  1896 ;; Defined at:
  1897 ;;		line 197 in file "mcc_generated_files/eusart2.c"
  1898 ;; Parameters:    Size  Location     Type
  1899 ;;		None
  1900 ;; Auto vars:     Size  Location     Type
  1901 ;;		None
  1902 ;; Return value:  Size  Location     Type
  1903 ;;                  1    wreg      void 
  1904 ;; Registers used:
  1905 ;;		wreg, fsr2l, fsr2h, status,2, status,0
  1906 ;; Tracked objects:
  1907 ;;		On entry : 0/0
  1908 ;;		On exit  : 0/0
  1909 ;;		Unchanged: 0/0
  1910 ;; Data sizes:     COMRAM   BANK0   BANK1   BANK2   BANK3   BANK4   BANK5   BANK6   BANK7   BANK8   BANK9  BANK10  BANK1
      +1  BANK12  BANK13  BANK14
  1911 ;;      Params:         0       0       0       0       0       0       0       0       0       0       0       0       
      +0       0       0       0
  1912 ;;      Locals:         0       0       0       0       0       0       0       0       0       0       0       0       
      +0       0       0       0
  1913 ;;      Temps:          0       0       0       0       0       0       0       0       0       0       0       0       
      +0       0       0       0
  1914 ;;      Totals:         0       0       0       0       0       0       0       0       0       0       0       0       
      +0       0       0       0
  1915 ;;Total ram usage:        0 bytes
  1916 ;; Hardware stack levels used: 1
  1917 ;; This function calls:
  1918 ;;		Nothing
  1919 ;; This function is called by:
  1920 ;;		_EUSART2_Initialize
  1921 ;;		_INTERRUPT_InterruptManager
  1922 ;; This function uses a non-reentrant model
  1923 ;;
  1924                           
  1925                           	psect	text24
  1926   001190                     __ptext24:
  1927                           	callstack 0
  1928   001190                     _EUSART2_Transmit_ISR:
  1929                           	callstack 26
  1930   001190                     
  1931                           ;mcc_generated_files/eusart2.c: 201:     if(sizeof(eusart2TxBuffer) > eusart2TxBufferRem
      +                          aining)
  1932   001190  0E08               	movlw	8
  1933   001192  6037               	cpfslt	_eusart2TxBufferRemaining^0,c	;volatile
  1934   001194  EFCE  F008         	goto	i2u17_41
  1935   001198  EFD0  F008         	goto	i2u17_40
  1936   00119C                     i2u17_41:
  1937   00119C  EFE4  F008         	goto	i2l439
  1938   0011A0                     i2u17_40:
  1939   0011A0                     
  1940                           ;mcc_generated_files/eusart2.c: 202:     {;mcc_generated_files/eusart2.c: 203:         T
      +                          XREG2 = eusart2TxBuffer[eusart2TxTail++];
  1941   0011A0  5038               	movf	_eusart2TxTail^0,w,c
  1942   0011A2  0F11               	addlw	low _eusart2TxBuffer
  1943   0011A4  6ED9               	movwf	fsr2l,c
  1944   0011A6  6ADA               	clrf	fsr2h,c
  1945   0011A8  50DF               	movf	indf2,w,c
  1946   0011AA  6E79               	movwf	121,c	;volatile
  1947   0011AC  2A38               	incf	_eusart2TxTail^0,f,c	;volatile
  1948   0011AE                     
  1949                           ;mcc_generated_files/eusart2.c: 204:         if(sizeof(eusart2TxBuffer) <= eusart2TxTail
      +                          )
  1950   0011AE  0E07               	movlw	7
  1951   0011B0  6438               	cpfsgt	_eusart2TxTail^0,c	;volatile
  1952   0011B2  EFDD  F008         	goto	i2u18_41
  1953   0011B6  EFDF  F008         	goto	i2u18_40
  1954   0011BA                     i2u18_41:
  1955   0011BA  EFE1  F008         	goto	i2l1405
  1956   0011BE                     i2u18_40:
  1957   0011BE                     
  1958                           ;mcc_generated_files/eusart2.c: 205:         {;mcc_generated_files/eusart2.c: 206:      
      +                                 eusart2TxTail = 0;
  1959   0011BE  0E00               	movlw	0
  1960   0011C0  6E38               	movwf	_eusart2TxTail^0,c	;volatile
  1961   0011C2                     i2l1405:
  1962                           
  1963                           ;mcc_generated_files/eusart2.c: 208:         eusart2TxBufferRemaining++;
  1964   0011C2  2A37               	incf	_eusart2TxBufferRemaining^0,f,c	;volatile
  1965                           
  1966                           ;mcc_generated_files/eusart2.c: 209:     }
  1967   0011C4  EFE5  F008         	goto	i2l442
  1968   0011C8                     i2l439:
  1969                           
  1970                           ;mcc_generated_files/eusart2.c: 211:     {;mcc_generated_files/eusart2.c: 212:         P
      +                          IE3bits.TX2IE = 0;
  1971   0011C8  98A3               	bcf	163,4,c	;volatile
  1972   0011CA                     i2l442:
  1973   0011CA  0012               	return		;funcret
  1974   0011CC                     __end_of_EUSART2_Transmit_ISR:
  1975                           	callstack 0
  1976                           
  1977 ;; *************** function _EUSART2_Receive_ISR *****************
  1978 ;; Defined at:
  1979 ;;		line 216 in file "mcc_generated_files/eusart2.c"
  1980 ;; Parameters:    Size  Location     Type
  1981 ;;		None
  1982 ;; Auto vars:     Size  Location     Type
  1983 ;;		None
  1984 ;; Return value:  Size  Location     Type
  1985 ;;                  1    wreg      void 
  1986 ;; Registers used:
  1987 ;;		wreg, fsr2l, fsr2h, status,2, status,0, pcl, pclath, pclatu, tosl, cstack
  1988 ;; Tracked objects:
  1989 ;;		On entry : 0/0
  1990 ;;		On exit  : 0/0
  1991 ;;		Unchanged: 0/0
  1992 ;; Data sizes:     COMRAM   BANK0   BANK1   BANK2   BANK3   BANK4   BANK5   BANK6   BANK7   BANK8   BANK9  BANK10  BANK1
      +1  BANK12  BANK13  BANK14
  1993 ;;      Params:         0       0       0       0       0       0       0       0       0       0       0       0       
      +0       0       0       0
  1994 ;;      Locals:         0       0       0       0       0       0       0       0       0       0       0       0       
      +0       0       0       0
  1995 ;;      Temps:          0       0       0       0       0       0       0       0       0       0       0       0       
      +0       0       0       0
  1996 ;;      Totals:         0       0       0       0       0       0       0       0       0       0       0       0       
      +0       0       0       0
  1997 ;;Total ram usage:        0 bytes
  1998 ;; Hardware stack levels used: 1
  1999 ;; Hardware stack levels required when called: 2
  2000 ;; This function calls:
  2001 ;;		NULL
  2002 ;;		_EUSART2_DefaultErrorHandler
  2003 ;;		_EUSART2_DefaultFramingErrorHandler
  2004 ;;		_EUSART2_DefaultOverrunErrorHandler
  2005 ;;		_EUSART2_RxDataHandler
  2006 ;; This function is called by:
  2007 ;;		_EUSART2_Initialize
  2008 ;;		_INTERRUPT_InterruptManager
  2009 ;; This function uses a non-reentrant model
  2010 ;;
  2011                           
  2012                           	psect	text25
  2013   000F02                     __ptext25:
  2014                           	callstack 0
  2015   000F02                     _EUSART2_Receive_ISR:
  2016                           	callstack 24
  2017   000F02                     
  2018                           ;mcc_generated_files/eusart2.c: 219:     eusart2RxStatusBuffer[eusart2RxHead].status = 0
      +                          ;
  2019   000F02  5036               	movf	_eusart2RxHead^0,w,c
  2020   000F04  0F01               	addlw	low _eusart2RxStatusBuffer
  2021   000F06  6ED9               	movwf	fsr2l,c
  2022   000F08  6ADA               	clrf	fsr2h,c
  2023   000F0A  6ADF               	clrf	indf2,c
  2024   000F0C                     
  2025                           ;mcc_generated_files/eusart2.c: 221:     if(RCSTA2bits.FERR){
  2026   000F0C  A4A6               	btfss	166,2,c	;volatile
  2027   000F0E  EF8B  F007         	goto	i2u19_41
  2028   000F12  EF8D  F007         	goto	i2u19_40
  2029   000F16                     i2u19_41:
  2030   000F16  EF9F  F007         	goto	i2l1415
  2031   000F1A                     i2u19_40:
  2032   000F1A                     
  2033                           ;mcc_generated_files/eusart2.c: 222:         eusart2RxStatusBuffer[eusart2RxHead].ferr =
      +                           1;
  2034   000F1A  5036               	movf	_eusart2RxHead^0,w,c
  2035   000F1C  0F01               	addlw	low _eusart2RxStatusBuffer
  2036   000F1E  6ED9               	movwf	fsr2l,c
  2037   000F20  6ADA               	clrf	fsr2h,c
  2038   000F22  82DF               	bsf	indf2,1,c
  2039   000F24                     
  2040                           ;mcc_generated_files/eusart2.c: 223:         EUSART2_FramingErrorHandler();
  2041   000F24  D802               	call	i2u20_48
  2042   000F26  EF9F  F007         	goto	i2u20_49
  2043   000F2A                     i2u20_48:
  2044   000F2A  0005               	push	
  2045   000F2C  6EFA               	movwf	pclath,c
  2046   000F2E  5045               	movf	_EUSART2_FramingErrorHandler^0,w,c
  2047   000F30  6EFD               	movwf	tosl,c
  2048   000F32  5046               	movf	(_EUSART2_FramingErrorHandler+1)^0,w,c
  2049   000F34  6EFE               	movwf	tosh,c
  2050   000F36  50F8               	movf	tblptru,w,c
  2051   000F38  6EFF               	movwf	tosu,c
  2052   000F3A  50FA               	movf	pclath,w,c
  2053   000F3C  0012               	return		;indir
  2054   000F3E                     i2u20_49:
  2055   000F3E                     i2l1415:
  2056                           
  2057                           ;mcc_generated_files/eusart2.c: 226:     if(RCSTA2bits.OERR){
  2058   000F3E  A2A6               	btfss	166,1,c	;volatile
  2059   000F40  EFA4  F007         	goto	i2u21_41
  2060   000F44  EFA6  F007         	goto	i2u21_40
  2061   000F48                     i2u21_41:
  2062   000F48  EFB8  F007         	goto	i2l1421
  2063   000F4C                     i2u21_40:
  2064   000F4C                     
  2065                           ;mcc_generated_files/eusart2.c: 227:         eusart2RxStatusBuffer[eusart2RxHead].oerr =
      +                           1;
  2066   000F4C  5036               	movf	_eusart2RxHead^0,w,c
  2067   000F4E  0F01               	addlw	low _eusart2RxStatusBuffer
  2068   000F50  6ED9               	movwf	fsr2l,c
  2069   000F52  6ADA               	clrf	fsr2h,c
  2070   000F54  84DF               	bsf	indf2,2,c
  2071   000F56                     
  2072                           ;mcc_generated_files/eusart2.c: 228:         EUSART2_OverrunErrorHandler();
  2073   000F56  D802               	call	i2u22_48
  2074   000F58  EFB8  F007         	goto	i2u22_49
  2075   000F5C                     i2u22_48:
  2076   000F5C  0005               	push	
  2077   000F5E  6EFA               	movwf	pclath,c
  2078   000F60  5043               	movf	_EUSART2_OverrunErrorHandler^0,w,c
  2079   000F62  6EFD               	movwf	tosl,c
  2080   000F64  5044               	movf	(_EUSART2_OverrunErrorHandler+1)^0,w,c
  2081   000F66  6EFE               	movwf	tosh,c
  2082   000F68  50F8               	movf	tblptru,w,c
  2083   000F6A  6EFF               	movwf	tosu,c
  2084   000F6C  50FA               	movf	pclath,w,c
  2085   000F6E  0012               	return		;indir
  2086   000F70                     i2u22_49:
  2087   000F70                     i2l1421:
  2088                           
  2089                           ;mcc_generated_files/eusart2.c: 231:     if(eusart2RxStatusBuffer[eusart2RxHead].status)
      +                          {
  2090   000F70  5036               	movf	_eusart2RxHead^0,w,c
  2091   000F72  0F01               	addlw	low _eusart2RxStatusBuffer
  2092   000F74  6ED9               	movwf	fsr2l,c
  2093   000F76  6ADA               	clrf	fsr2h,c
  2094   000F78  50DF               	movf	indf2,w,c
  2095   000F7A  B4D8               	btfsc	status,2,c
  2096   000F7C  EFC2  F007         	goto	i2u23_41
  2097   000F80  EFC4  F007         	goto	i2u23_40
  2098   000F84                     i2u23_41:
  2099   000F84  EFD3  F007         	goto	i2l1425
  2100   000F88                     i2u23_40:
  2101   000F88                     
  2102                           ;mcc_generated_files/eusart2.c: 232:         EUSART2_ErrorHandler();
  2103   000F88  D802               	call	i2u24_48
  2104   000F8A  EFD1  F007         	goto	i2u24_49
  2105   000F8E                     i2u24_48:
  2106   000F8E  0005               	push	
  2107   000F90  6EFA               	movwf	pclath,c
  2108   000F92  5041               	movf	_EUSART2_ErrorHandler^0,w,c
  2109   000F94  6EFD               	movwf	tosl,c
  2110   000F96  5042               	movf	(_EUSART2_ErrorHandler+1)^0,w,c
  2111   000F98  6EFE               	movwf	tosh,c
  2112   000F9A  50F8               	movf	tblptru,w,c
  2113   000F9C  6EFF               	movwf	tosu,c
  2114   000F9E  50FA               	movf	pclath,w,c
  2115   000FA0  0012               	return		;indir
  2116   000FA2                     i2u24_49:
  2117                           
  2118                           ;mcc_generated_files/eusart2.c: 233:     } else {
  2119   000FA2  EFD5  F007         	goto	i2l449
  2120   000FA6                     i2l1425:
  2121                           
  2122                           ;mcc_generated_files/eusart2.c: 234:         EUSART2_RxDataHandler();
  2123   000FA6  EC2C  F009         	call	_EUSART2_RxDataHandler	;wreg free
  2124   000FAA                     i2l449:
  2125   000FAA  0012               	return		;funcret
  2126   000FAC                     __end_of_EUSART2_Receive_ISR:
  2127                           	callstack 0
  2128                           
  2129 ;; *************** function _EUSART2_DefaultOverrunErrorHandler *****************
  2130 ;; Defined at:
  2131 ;;		line 252 in file "mcc_generated_files/eusart2.c"
  2132 ;; Parameters:    Size  Location     Type
  2133 ;;		None
  2134 ;; Auto vars:     Size  Location     Type
  2135 ;;		None
  2136 ;; Return value:  Size  Location     Type
  2137 ;;                  1    wreg      void 
  2138 ;; Registers used:
  2139 ;;		None
  2140 ;; Tracked objects:
  2141 ;;		On entry : 0/0
  2142 ;;		On exit  : 0/0
  2143 ;;		Unchanged: 0/0
  2144 ;; Data sizes:     COMRAM   BANK0   BANK1   BANK2   BANK3   BANK4   BANK5   BANK6   BANK7   BANK8   BANK9  BANK10  BANK1
      +1  BANK12  BANK13  BANK14
  2145 ;;      Params:         0       0       0       0       0       0       0       0       0       0       0       0       
      +0       0       0       0
  2146 ;;      Locals:         0       0       0       0       0       0       0       0       0       0       0       0       
      +0       0       0       0
  2147 ;;      Temps:          0       0       0       0       0       0       0       0       0       0       0       0       
      +0       0       0       0
  2148 ;;      Totals:         0       0       0       0       0       0       0       0       0       0       0       0       
      +0       0       0       0
  2149 ;;Total ram usage:        0 bytes
  2150 ;; Hardware stack levels used: 1
  2151 ;; This function calls:
  2152 ;;		Nothing
  2153 ;; This function is called by:
  2154 ;;		_EUSART2_Initialize
  2155 ;;		_EUSART2_Receive_ISR
  2156 ;; This function uses a non-reentrant model
  2157 ;;
  2158                           
  2159                           	psect	text26
  2160   00139C                     __ptext26:
  2161                           	callstack 0
  2162   00139C                     _EUSART2_DefaultOverrunErrorHandler:
  2163                           	callstack 25
  2164   00139C                     
  2165                           ;mcc_generated_files/eusart2.c: 255:     RCSTA2bits.CREN = 0;
  2166   00139C  98A6               	bcf	166,4,c	;volatile
  2167                           
  2168                           ;mcc_generated_files/eusart2.c: 256:     RCSTA2bits.CREN = 1;
  2169   00139E  88A6               	bsf	166,4,c	;volatile
  2170   0013A0  0012               	return		;funcret
  2171   0013A2                     __end_of_EUSART2_DefaultOverrunErrorHandler:
  2172                           	callstack 0
  2173                           
  2174 ;; *************** function _EUSART2_DefaultFramingErrorHandler *****************
  2175 ;; Defined at:
  2176 ;;		line 250 in file "mcc_generated_files/eusart2.c"
  2177 ;; Parameters:    Size  Location     Type
  2178 ;;		None
  2179 ;; Auto vars:     Size  Location     Type
  2180 ;;		None
  2181 ;; Return value:  Size  Location     Type
  2182 ;;                  1    wreg      void 
  2183 ;; Registers used:
  2184 ;;		None
  2185 ;; Tracked objects:
  2186 ;;		On entry : 0/0
  2187 ;;		On exit  : 0/0
  2188 ;;		Unchanged: 0/0
  2189 ;; Data sizes:     COMRAM   BANK0   BANK1   BANK2   BANK3   BANK4   BANK5   BANK6   BANK7   BANK8   BANK9  BANK10  BANK1
      +1  BANK12  BANK13  BANK14
  2190 ;;      Params:         0       0       0       0       0       0       0       0       0       0       0       0       
      +0       0       0       0
  2191 ;;      Locals:         0       0       0       0       0       0       0       0       0       0       0       0       
      +0       0       0       0
  2192 ;;      Temps:          0       0       0       0       0       0       0       0       0       0       0       0       
      +0       0       0       0
  2193 ;;      Totals:         0       0       0       0       0       0       0       0       0       0       0       0       
      +0       0       0       0
  2194 ;;Total ram usage:        0 bytes
  2195 ;; Hardware stack levels used: 1
  2196 ;; This function calls:
  2197 ;;		Nothing
  2198 ;; This function is called by:
  2199 ;;		_EUSART2_Initialize
  2200 ;;		_EUSART2_Receive_ISR
  2201 ;; This function uses a non-reentrant model
  2202 ;;
  2203                           
  2204                           	psect	text27
  2205   0013B8                     __ptext27:
  2206                           	callstack 0
  2207   0013B8                     _EUSART2_DefaultFramingErrorHandler:
  2208                           	callstack 25
  2209   0013B8  0012               	return		;funcret
  2210   0013BA                     __end_of_EUSART2_DefaultFramingErrorHandler:
  2211                           	callstack 0
  2212                           
  2213 ;; *************** function _EUSART2_DefaultErrorHandler *****************
  2214 ;; Defined at:
  2215 ;;		line 260 in file "mcc_generated_files/eusart2.c"
  2216 ;; Parameters:    Size  Location     Type
  2217 ;;		None
  2218 ;; Auto vars:     Size  Location     Type
  2219 ;;		None
  2220 ;; Return value:  Size  Location     Type
  2221 ;;                  1    wreg      void 
  2222 ;; Registers used:
  2223 ;;		wreg, fsr2l, fsr2h, status,2, status,0, cstack
  2224 ;; Tracked objects:
  2225 ;;		On entry : 0/0
  2226 ;;		On exit  : 0/0
  2227 ;;		Unchanged: 0/0
  2228 ;; Data sizes:     COMRAM   BANK0   BANK1   BANK2   BANK3   BANK4   BANK5   BANK6   BANK7   BANK8   BANK9  BANK10  BANK1
      +1  BANK12  BANK13  BANK14
  2229 ;;      Params:         0       0       0       0       0       0       0       0       0       0       0       0       
      +0       0       0       0
  2230 ;;      Locals:         0       0       0       0       0       0       0       0       0       0       0       0       
      +0       0       0       0
  2231 ;;      Temps:          0       0       0       0       0       0       0       0       0       0       0       0       
      +0       0       0       0
  2232 ;;      Totals:         0       0       0       0       0       0       0       0       0       0       0       0       
      +0       0       0       0
  2233 ;;Total ram usage:        0 bytes
  2234 ;; Hardware stack levels used: 1
  2235 ;; Hardware stack levels required when called: 1
  2236 ;; This function calls:
  2237 ;;		_EUSART2_RxDataHandler
  2238 ;; This function is called by:
  2239 ;;		_EUSART2_Initialize
  2240 ;;		_EUSART2_Receive_ISR
  2241 ;; This function uses a non-reentrant model
  2242 ;;
  2243                           
  2244                           	psect	text28
  2245   0013A2                     __ptext28:
  2246                           	callstack 0
  2247   0013A2                     _EUSART2_DefaultErrorHandler:
  2248                           	callstack 24
  2249   0013A2                     
  2250                           ;mcc_generated_files/eusart2.c: 261:     EUSART2_RxDataHandler();
  2251   0013A2  EC2C  F009         	call	_EUSART2_RxDataHandler	;wreg free
  2252   0013A6  0012               	return		;funcret
  2253   0013A8                     __end_of_EUSART2_DefaultErrorHandler:
  2254                           	callstack 0
  2255                           
  2256 ;; *************** function _EUSART2_RxDataHandler *****************
  2257 ;; Defined at:
  2258 ;;		line 240 in file "mcc_generated_files/eusart2.c"
  2259 ;; Parameters:    Size  Location     Type
  2260 ;;		None
  2261 ;; Auto vars:     Size  Location     Type
  2262 ;;		None
  2263 ;; Return value:  Size  Location     Type
  2264 ;;                  1    wreg      void 
  2265 ;; Registers used:
  2266 ;;		wreg, fsr2l, fsr2h, status,2, status,0
  2267 ;; Tracked objects:
  2268 ;;		On entry : 0/0
  2269 ;;		On exit  : 0/0
  2270 ;;		Unchanged: 0/0
  2271 ;; Data sizes:     COMRAM   BANK0   BANK1   BANK2   BANK3   BANK4   BANK5   BANK6   BANK7   BANK8   BANK9  BANK10  BANK1
      +1  BANK12  BANK13  BANK14
  2272 ;;      Params:         0       0       0       0       0       0       0       0       0       0       0       0       
      +0       0       0       0
  2273 ;;      Locals:         0       0       0       0       0       0       0       0       0       0       0       0       
      +0       0       0       0
  2274 ;;      Temps:          0       0       0       0       0       0       0       0       0       0       0       0       
      +0       0       0       0
  2275 ;;      Totals:         0       0       0       0       0       0       0       0       0       0       0       0       
      +0       0       0       0
  2276 ;;Total ram usage:        0 bytes
  2277 ;; Hardware stack levels used: 1
  2278 ;; This function calls:
  2279 ;;		Nothing
  2280 ;; This function is called by:
  2281 ;;		_EUSART2_Receive_ISR
  2282 ;;		_EUSART2_DefaultErrorHandler
  2283 ;; This function uses a non-reentrant model
  2284 ;;
  2285                           
  2286                           	psect	text29
  2287   001258                     __ptext29:
  2288                           	callstack 0
  2289   001258                     _EUSART2_RxDataHandler:
  2290                           	callstack 25
  2291   001258                     
  2292                           ;mcc_generated_files/eusart2.c: 242:     eusart2RxBuffer[eusart2RxHead++] = RCREG2;
  2293   001258  5036               	movf	_eusart2RxHead^0,w,c
  2294   00125A  0F09               	addlw	low _eusart2RxBuffer
  2295   00125C  6ED9               	movwf	fsr2l,c
  2296   00125E  6ADA               	clrf	fsr2h,c
  2297   001260  CF7A FFDF          	movff	3962,indf2	;volatile
  2298   001264  2A36               	incf	_eusart2RxHead^0,f,c	;volatile
  2299   001266                     
  2300                           ;mcc_generated_files/eusart2.c: 243:     if(sizeof(eusart2RxBuffer) <= eusart2RxHead)
  2301   001266  0E07               	movlw	7
  2302   001268  6436               	cpfsgt	_eusart2RxHead^0,c	;volatile
  2303   00126A  EF39  F009         	goto	i2u2_41
  2304   00126E  EF3B  F009         	goto	i2u2_40
  2305   001272                     i2u2_41:
  2306   001272  EF3D  F009         	goto	i2l1229
  2307   001276                     i2u2_40:
  2308   001276                     
  2309                           ;mcc_generated_files/eusart2.c: 244:     {;mcc_generated_files/eusart2.c: 245:         e
      +                          usart2RxHead = 0;
  2310   001276  0E00               	movlw	0
  2311   001278  6E36               	movwf	_eusart2RxHead^0,c	;volatile
  2312   00127A                     i2l1229:
  2313                           
  2314                           ;mcc_generated_files/eusart2.c: 247:     eusart2RxCount++;
  2315   00127A  2A34               	incf	_eusart2RxCount^0,f,c	;volatile
  2316   00127C  0012               	return		;funcret
  2317   00127E                     __end_of_EUSART2_RxDataHandler:
  2318                           	callstack 0
  2319                           
  2320 ;; *************** function _EUSART1_Transmit_ISR *****************
  2321 ;; Defined at:
  2322 ;;		line 206 in file "mcc_generated_files/eusart1.c"
  2323 ;; Parameters:    Size  Location     Type
  2324 ;;		None
  2325 ;; Auto vars:     Size  Location     Type
  2326 ;;		None
  2327 ;; Return value:  Size  Location     Type
  2328 ;;                  1    wreg      void 
  2329 ;; Registers used:
  2330 ;;		wreg, fsr2l, fsr2h, status,2, status,0
  2331 ;; Tracked objects:
  2332 ;;		On entry : 0/0
  2333 ;;		On exit  : 0/0
  2334 ;;		Unchanged: 0/0
  2335 ;; Data sizes:     COMRAM   BANK0   BANK1   BANK2   BANK3   BANK4   BANK5   BANK6   BANK7   BANK8   BANK9  BANK10  BANK1
      +1  BANK12  BANK13  BANK14
  2336 ;;      Params:         0       0       0       0       0       0       0       0       0       0       0       0       
      +0       0       0       0
  2337 ;;      Locals:         0       0       0       0       0       0       0       0       0       0       0       0       
      +0       0       0       0
  2338 ;;      Temps:          0       0       0       0       0       0       0       0       0       0       0       0       
      +0       0       0       0
  2339 ;;      Totals:         0       0       0       0       0       0       0       0       0       0       0       0       
      +0       0       0       0
  2340 ;;Total ram usage:        0 bytes
  2341 ;; Hardware stack levels used: 1
  2342 ;; This function calls:
  2343 ;;		Nothing
  2344 ;; This function is called by:
  2345 ;;		_EUSART1_Initialize
  2346 ;;		_INTERRUPT_InterruptManager
  2347 ;; This function uses a non-reentrant model
  2348 ;;
  2349                           
  2350                           	psect	text30
  2351   0011CC                     __ptext30:
  2352                           	callstack 0
  2353   0011CC                     _EUSART1_Transmit_ISR:
  2354                           	callstack 26
  2355   0011CC                     
  2356                           ;mcc_generated_files/eusart1.c: 210:     if(sizeof(eusart1TxBuffer) > eusart1TxBufferRem
      +                          aining)
  2357   0011CC  0E08               	movlw	8
  2358   0011CE  603E               	cpfslt	_eusart1TxBufferRemaining^0,c	;volatile
  2359   0011D0  EFEC  F008         	goto	i2u9_41
  2360   0011D4  EFEE  F008         	goto	i2u9_40
  2361   0011D8                     i2u9_41:
  2362   0011D8  EF02  F009         	goto	i2l178
  2363   0011DC                     i2u9_40:
  2364   0011DC                     
  2365                           ;mcc_generated_files/eusart1.c: 211:     {;mcc_generated_files/eusart1.c: 212:         T
      +                          XREG1 = eusart1TxBuffer[eusart1TxTail++];
  2366   0011DC  503F               	movf	_eusart1TxTail^0,w,c
  2367   0011DE  0F29               	addlw	low _eusart1TxBuffer
  2368   0011E0  6ED9               	movwf	fsr2l,c
  2369   0011E2  6ADA               	clrf	fsr2h,c
  2370   0011E4  50DF               	movf	indf2,w,c
  2371   0011E6  6EAD               	movwf	173,c	;volatile
  2372   0011E8  2A3F               	incf	_eusart1TxTail^0,f,c	;volatile
  2373   0011EA                     
  2374                           ;mcc_generated_files/eusart1.c: 213:         if(sizeof(eusart1TxBuffer) <= eusart1TxTail
      +                          )
  2375   0011EA  0E07               	movlw	7
  2376   0011EC  643F               	cpfsgt	_eusart1TxTail^0,c	;volatile
  2377   0011EE  EFFB  F008         	goto	i2u10_41
  2378   0011F2  EFFD  F008         	goto	i2u10_40
  2379   0011F6                     i2u10_41:
  2380   0011F6  EFFF  F008         	goto	i2l1371
  2381   0011FA                     i2u10_40:
  2382   0011FA                     
  2383                           ;mcc_generated_files/eusart1.c: 214:         {;mcc_generated_files/eusart1.c: 215:      
      +                                 eusart1TxTail = 0;
  2384   0011FA  0E00               	movlw	0
  2385   0011FC  6E3F               	movwf	_eusart1TxTail^0,c	;volatile
  2386   0011FE                     i2l1371:
  2387                           
  2388                           ;mcc_generated_files/eusart1.c: 217:         eusart1TxBufferRemaining++;
  2389   0011FE  2A3E               	incf	_eusart1TxBufferRemaining^0,f,c	;volatile
  2390                           
  2391                           ;mcc_generated_files/eusart1.c: 218:     }
  2392   001200  EF03  F009         	goto	i2l181
  2393   001204                     i2l178:
  2394                           
  2395                           ;mcc_generated_files/eusart1.c: 220:     {;mcc_generated_files/eusart1.c: 221:         P
      +                          IE1bits.TX1IE = 0;
  2396   001204  989D               	bcf	157,4,c	;volatile
  2397   001206                     i2l181:
  2398   001206  0012               	return		;funcret
  2399   001208                     __end_of_EUSART1_Transmit_ISR:
  2400                           	callstack 0
  2401                           
  2402 ;; *************** function _EUSART1_Receive_ISR *****************
  2403 ;; Defined at:
  2404 ;;		line 225 in file "mcc_generated_files/eusart1.c"
  2405 ;; Parameters:    Size  Location     Type
  2406 ;;		None
  2407 ;; Auto vars:     Size  Location     Type
  2408 ;;		None
  2409 ;; Return value:  Size  Location     Type
  2410 ;;                  1    wreg      void 
  2411 ;; Registers used:
  2412 ;;		wreg, fsr2l, fsr2h, status,2, status,0, pcl, pclath, pclatu, tosl, cstack
  2413 ;; Tracked objects:
  2414 ;;		On entry : 0/0
  2415 ;;		On exit  : 0/0
  2416 ;;		Unchanged: 0/0
  2417 ;; Data sizes:     COMRAM   BANK0   BANK1   BANK2   BANK3   BANK4   BANK5   BANK6   BANK7   BANK8   BANK9  BANK10  BANK1
      +1  BANK12  BANK13  BANK14
  2418 ;;      Params:         0       0       0       0       0       0       0       0       0       0       0       0       
      +0       0       0       0
  2419 ;;      Locals:         0       0       0       0       0       0       0       0       0       0       0       0       
      +0       0       0       0
  2420 ;;      Temps:          0       0       0       0       0       0       0       0       0       0       0       0       
      +0       0       0       0
  2421 ;;      Totals:         0       0       0       0       0       0       0       0       0       0       0       0       
      +0       0       0       0
  2422 ;;Total ram usage:        0 bytes
  2423 ;; Hardware stack levels used: 1
  2424 ;; Hardware stack levels required when called: 2
  2425 ;; This function calls:
  2426 ;;		NULL
  2427 ;;		_EUSART1_DefaultErrorHandler
  2428 ;;		_EUSART1_DefaultFramingErrorHandler
  2429 ;;		_EUSART1_DefaultOverrunErrorHandler
  2430 ;;		_EUSART1_RxDataHandler
  2431 ;; This function is called by:
  2432 ;;		_EUSART1_Initialize
  2433 ;;		_INTERRUPT_InterruptManager
  2434 ;; This function uses a non-reentrant model
  2435 ;;
  2436                           
  2437                           	psect	text31
  2438   000FAC                     __ptext31:
  2439                           	callstack 0
  2440   000FAC                     _EUSART1_Receive_ISR:
  2441                           	callstack 24
  2442   000FAC                     
  2443                           ;mcc_generated_files/eusart1.c: 228:     eusart1RxStatusBuffer[eusart1RxHead].status = 0
      +                          ;
  2444   000FAC  503D               	movf	_eusart1RxHead^0,w,c
  2445   000FAE  0F19               	addlw	low _eusart1RxStatusBuffer
  2446   000FB0  6ED9               	movwf	fsr2l,c
  2447   000FB2  6ADA               	clrf	fsr2h,c
  2448   000FB4  6ADF               	clrf	indf2,c
  2449   000FB6                     
  2450                           ;mcc_generated_files/eusart1.c: 230:     if(RCSTA1bits.FERR){
  2451   000FB6  A4AB               	btfss	171,2,c	;volatile
  2452   000FB8  EFE0  F007         	goto	i2u11_41
  2453   000FBC  EFE2  F007         	goto	i2u11_40
  2454   000FC0                     i2u11_41:
  2455   000FC0  EFF4  F007         	goto	i2l1381
  2456   000FC4                     i2u11_40:
  2457   000FC4                     
  2458                           ;mcc_generated_files/eusart1.c: 231:         eusart1RxStatusBuffer[eusart1RxHead].ferr =
      +                           1;
  2459   000FC4  503D               	movf	_eusart1RxHead^0,w,c
  2460   000FC6  0F19               	addlw	low _eusart1RxStatusBuffer
  2461   000FC8  6ED9               	movwf	fsr2l,c
  2462   000FCA  6ADA               	clrf	fsr2h,c
  2463   000FCC  82DF               	bsf	indf2,1,c
  2464   000FCE                     
  2465                           ;mcc_generated_files/eusart1.c: 232:         EUSART1_FramingErrorHandler();
  2466   000FCE  D802               	call	i2u12_48
  2467   000FD0  EFF4  F007         	goto	i2u12_49
  2468   000FD4                     i2u12_48:
  2469   000FD4  0005               	push	
  2470   000FD6  6EFA               	movwf	pclath,c
  2471   000FD8  504F               	movf	_EUSART1_FramingErrorHandler^0,w,c
  2472   000FDA  6EFD               	movwf	tosl,c
  2473   000FDC  5050               	movf	(_EUSART1_FramingErrorHandler+1)^0,w,c
  2474   000FDE  6EFE               	movwf	tosh,c
  2475   000FE0  50F8               	movf	tblptru,w,c
  2476   000FE2  6EFF               	movwf	tosu,c
  2477   000FE4  50FA               	movf	pclath,w,c
  2478   000FE6  0012               	return		;indir
  2479   000FE8                     i2u12_49:
  2480   000FE8                     i2l1381:
  2481                           
  2482                           ;mcc_generated_files/eusart1.c: 235:     if(RCSTA1bits.OERR){
  2483   000FE8  A2AB               	btfss	171,1,c	;volatile
  2484   000FEA  EFF9  F007         	goto	i2u13_41
  2485   000FEE  EFFB  F007         	goto	i2u13_40
  2486   000FF2                     i2u13_41:
  2487   000FF2  EF0D  F008         	goto	i2l1387
  2488   000FF6                     i2u13_40:
  2489   000FF6                     
  2490                           ;mcc_generated_files/eusart1.c: 236:         eusart1RxStatusBuffer[eusart1RxHead].oerr =
      +                           1;
  2491   000FF6  503D               	movf	_eusart1RxHead^0,w,c
  2492   000FF8  0F19               	addlw	low _eusart1RxStatusBuffer
  2493   000FFA  6ED9               	movwf	fsr2l,c
  2494   000FFC  6ADA               	clrf	fsr2h,c
  2495   000FFE  84DF               	bsf	indf2,2,c
  2496   001000                     
  2497                           ;mcc_generated_files/eusart1.c: 237:         EUSART1_OverrunErrorHandler();
  2498   001000  D802               	call	i2u14_48
  2499   001002  EF0D  F008         	goto	i2u14_49
  2500   001006                     i2u14_48:
  2501   001006  0005               	push	
  2502   001008  6EFA               	movwf	pclath,c
  2503   00100A  504D               	movf	_EUSART1_OverrunErrorHandler^0,w,c
  2504   00100C  6EFD               	movwf	tosl,c
  2505   00100E  504E               	movf	(_EUSART1_OverrunErrorHandler+1)^0,w,c
  2506   001010  6EFE               	movwf	tosh,c
  2507   001012  50F8               	movf	tblptru,w,c
  2508   001014  6EFF               	movwf	tosu,c
  2509   001016  50FA               	movf	pclath,w,c
  2510   001018  0012               	return		;indir
  2511   00101A                     i2u14_49:
  2512   00101A                     i2l1387:
  2513                           
  2514                           ;mcc_generated_files/eusart1.c: 240:     if(eusart1RxStatusBuffer[eusart1RxHead].status)
      +                          {
  2515   00101A  503D               	movf	_eusart1RxHead^0,w,c
  2516   00101C  0F19               	addlw	low _eusart1RxStatusBuffer
  2517   00101E  6ED9               	movwf	fsr2l,c
  2518   001020  6ADA               	clrf	fsr2h,c
  2519   001022  50DF               	movf	indf2,w,c
  2520   001024  B4D8               	btfsc	status,2,c
  2521   001026  EF17  F008         	goto	i2u15_41
  2522   00102A  EF19  F008         	goto	i2u15_40
  2523   00102E                     i2u15_41:
  2524   00102E  EF28  F008         	goto	i2l1391
  2525   001032                     i2u15_40:
  2526   001032                     
  2527                           ;mcc_generated_files/eusart1.c: 241:         EUSART1_ErrorHandler();
  2528   001032  D802               	call	i2u16_48
  2529   001034  EF26  F008         	goto	i2u16_49
  2530   001038                     i2u16_48:
  2531   001038  0005               	push	
  2532   00103A  6EFA               	movwf	pclath,c
  2533   00103C  504B               	movf	_EUSART1_ErrorHandler^0,w,c
  2534   00103E  6EFD               	movwf	tosl,c
  2535   001040  504C               	movf	(_EUSART1_ErrorHandler+1)^0,w,c
  2536   001042  6EFE               	movwf	tosh,c
  2537   001044  50F8               	movf	tblptru,w,c
  2538   001046  6EFF               	movwf	tosu,c
  2539   001048  50FA               	movf	pclath,w,c
  2540   00104A  0012               	return		;indir
  2541   00104C                     i2u16_49:
  2542                           
  2543                           ;mcc_generated_files/eusart1.c: 242:     } else {
  2544   00104C  EF2A  F008         	goto	i2l188
  2545   001050                     i2l1391:
  2546                           
  2547                           ;mcc_generated_files/eusart1.c: 243:         EUSART1_RxDataHandler();
  2548   001050  EC3F  F009         	call	_EUSART1_RxDataHandler	;wreg free
  2549   001054                     i2l188:
  2550   001054  0012               	return		;funcret
  2551   001056                     __end_of_EUSART1_Receive_ISR:
  2552                           	callstack 0
  2553                           
  2554 ;; *************** function _EUSART1_DefaultOverrunErrorHandler *****************
  2555 ;; Defined at:
  2556 ;;		line 261 in file "mcc_generated_files/eusart1.c"
  2557 ;; Parameters:    Size  Location     Type
  2558 ;;		None
  2559 ;; Auto vars:     Size  Location     Type
  2560 ;;		None
  2561 ;; Return value:  Size  Location     Type
  2562 ;;                  1    wreg      void 
  2563 ;; Registers used:
  2564 ;;		None
  2565 ;; Tracked objects:
  2566 ;;		On entry : 0/0
  2567 ;;		On exit  : 0/0
  2568 ;;		Unchanged: 0/0
  2569 ;; Data sizes:     COMRAM   BANK0   BANK1   BANK2   BANK3   BANK4   BANK5   BANK6   BANK7   BANK8   BANK9  BANK10  BANK1
      +1  BANK12  BANK13  BANK14
  2570 ;;      Params:         0       0       0       0       0       0       0       0       0       0       0       0       
      +0       0       0       0
  2571 ;;      Locals:         0       0       0       0       0       0       0       0       0       0       0       0       
      +0       0       0       0
  2572 ;;      Temps:          0       0       0       0       0       0       0       0       0       0       0       0       
      +0       0       0       0
  2573 ;;      Totals:         0       0       0       0       0       0       0       0       0       0       0       0       
      +0       0       0       0
  2574 ;;Total ram usage:        0 bytes
  2575 ;; Hardware stack levels used: 1
  2576 ;; This function calls:
  2577 ;;		Nothing
  2578 ;; This function is called by:
  2579 ;;		_EUSART1_Initialize
  2580 ;;		_EUSART1_Receive_ISR
  2581 ;; This function uses a non-reentrant model
  2582 ;;
  2583                           
  2584                           	psect	text32
  2585   0013A8                     __ptext32:
  2586                           	callstack 0
  2587   0013A8                     _EUSART1_DefaultOverrunErrorHandler:
  2588                           	callstack 25
  2589   0013A8                     
  2590                           ;mcc_generated_files/eusart1.c: 264:     RCSTA1bits.CREN = 0;
  2591   0013A8  98AB               	bcf	171,4,c	;volatile
  2592                           
  2593                           ;mcc_generated_files/eusart1.c: 265:     RCSTA1bits.CREN = 1;
  2594   0013AA  88AB               	bsf	171,4,c	;volatile
  2595   0013AC  0012               	return		;funcret
  2596   0013AE                     __end_of_EUSART1_DefaultOverrunErrorHandler:
  2597                           	callstack 0
  2598                           
  2599 ;; *************** function _EUSART1_DefaultFramingErrorHandler *****************
  2600 ;; Defined at:
  2601 ;;		line 259 in file "mcc_generated_files/eusart1.c"
  2602 ;; Parameters:    Size  Location     Type
  2603 ;;		None
  2604 ;; Auto vars:     Size  Location     Type
  2605 ;;		None
  2606 ;; Return value:  Size  Location     Type
  2607 ;;                  1    wreg      void 
  2608 ;; Registers used:
  2609 ;;		None
  2610 ;; Tracked objects:
  2611 ;;		On entry : 0/0
  2612 ;;		On exit  : 0/0
  2613 ;;		Unchanged: 0/0
  2614 ;; Data sizes:     COMRAM   BANK0   BANK1   BANK2   BANK3   BANK4   BANK5   BANK6   BANK7   BANK8   BANK9  BANK10  BANK1
      +1  BANK12  BANK13  BANK14
  2615 ;;      Params:         0       0       0       0       0       0       0       0       0       0       0       0       
      +0       0       0       0
  2616 ;;      Locals:         0       0       0       0       0       0       0       0       0       0       0       0       
      +0       0       0       0
  2617 ;;      Temps:          0       0       0       0       0       0       0       0       0       0       0       0       
      +0       0       0       0
  2618 ;;      Totals:         0       0       0       0       0       0       0       0       0       0       0       0       
      +0       0       0       0
  2619 ;;Total ram usage:        0 bytes
  2620 ;; Hardware stack levels used: 1
  2621 ;; This function calls:
  2622 ;;		Nothing
  2623 ;; This function is called by:
  2624 ;;		_EUSART1_Initialize
  2625 ;;		_EUSART1_Receive_ISR
  2626 ;; This function uses a non-reentrant model
  2627 ;;
  2628                           
  2629                           	psect	text33
  2630   0013BA                     __ptext33:
  2631                           	callstack 0
  2632   0013BA                     _EUSART1_DefaultFramingErrorHandler:
  2633                           	callstack 25
  2634   0013BA  0012               	return		;funcret
  2635   0013BC                     __end_of_EUSART1_DefaultFramingErrorHandler:
  2636                           	callstack 0
  2637                           
  2638 ;; *************** function _EUSART1_DefaultErrorHandler *****************
  2639 ;; Defined at:
  2640 ;;		line 269 in file "mcc_generated_files/eusart1.c"
  2641 ;; Parameters:    Size  Location     Type
  2642 ;;		None
  2643 ;; Auto vars:     Size  Location     Type
  2644 ;;		None
  2645 ;; Return value:  Size  Location     Type
  2646 ;;                  1    wreg      void 
  2647 ;; Registers used:
  2648 ;;		wreg, fsr2l, fsr2h, status,2, status,0, cstack
  2649 ;; Tracked objects:
  2650 ;;		On entry : 0/0
  2651 ;;		On exit  : 0/0
  2652 ;;		Unchanged: 0/0
  2653 ;; Data sizes:     COMRAM   BANK0   BANK1   BANK2   BANK3   BANK4   BANK5   BANK6   BANK7   BANK8   BANK9  BANK10  BANK1
      +1  BANK12  BANK13  BANK14
  2654 ;;      Params:         0       0       0       0       0       0       0       0       0       0       0       0       
      +0       0       0       0
  2655 ;;      Locals:         0       0       0       0       0       0       0       0       0       0       0       0       
      +0       0       0       0
  2656 ;;      Temps:          0       0       0       0       0       0       0       0       0       0       0       0       
      +0       0       0       0
  2657 ;;      Totals:         0       0       0       0       0       0       0       0       0       0       0       0       
      +0       0       0       0
  2658 ;;Total ram usage:        0 bytes
  2659 ;; Hardware stack levels used: 1
  2660 ;; Hardware stack levels required when called: 1
  2661 ;; This function calls:
  2662 ;;		_EUSART1_RxDataHandler
  2663 ;; This function is called by:
  2664 ;;		_EUSART1_Initialize
  2665 ;;		_EUSART1_Receive_ISR
  2666 ;; This function uses a non-reentrant model
  2667 ;;
  2668                           
  2669                           	psect	text34
  2670   0013AE                     __ptext34:
  2671                           	callstack 0
  2672   0013AE                     _EUSART1_DefaultErrorHandler:
  2673                           	callstack 24
  2674   0013AE                     
  2675                           ;mcc_generated_files/eusart1.c: 270:     EUSART1_RxDataHandler();
  2676   0013AE  EC3F  F009         	call	_EUSART1_RxDataHandler	;wreg free
  2677   0013B2  0012               	return		;funcret
  2678   0013B4                     __end_of_EUSART1_DefaultErrorHandler:
  2679                           	callstack 0
  2680                           
  2681 ;; *************** function _EUSART1_RxDataHandler *****************
  2682 ;; Defined at:
  2683 ;;		line 249 in file "mcc_generated_files/eusart1.c"
  2684 ;; Parameters:    Size  Location     Type
  2685 ;;		None
  2686 ;; Auto vars:     Size  Location     Type
  2687 ;;		None
  2688 ;; Return value:  Size  Location     Type
  2689 ;;                  1    wreg      void 
  2690 ;; Registers used:
  2691 ;;		wreg, fsr2l, fsr2h, status,2, status,0
  2692 ;; Tracked objects:
  2693 ;;		On entry : 0/0
  2694 ;;		On exit  : 0/0
  2695 ;;		Unchanged: 0/0
  2696 ;; Data sizes:     COMRAM   BANK0   BANK1   BANK2   BANK3   BANK4   BANK5   BANK6   BANK7   BANK8   BANK9  BANK10  BANK1
      +1  BANK12  BANK13  BANK14
  2697 ;;      Params:         0       0       0       0       0       0       0       0       0       0       0       0       
      +0       0       0       0
  2698 ;;      Locals:         0       0       0       0       0       0       0       0       0       0       0       0       
      +0       0       0       0
  2699 ;;      Temps:          0       0       0       0       0       0       0       0       0       0       0       0       
      +0       0       0       0
  2700 ;;      Totals:         0       0       0       0       0       0       0       0       0       0       0       0       
      +0       0       0       0
  2701 ;;Total ram usage:        0 bytes
  2702 ;; Hardware stack levels used: 1
  2703 ;; This function calls:
  2704 ;;		Nothing
  2705 ;; This function is called by:
  2706 ;;		_EUSART1_Receive_ISR
  2707 ;;		_EUSART1_DefaultErrorHandler
  2708 ;; This function uses a non-reentrant model
  2709 ;;
  2710                           
  2711                           	psect	text35
  2712   00127E                     __ptext35:
  2713                           	callstack 0
  2714   00127E                     _EUSART1_RxDataHandler:
  2715                           	callstack 25
  2716   00127E                     
  2717                           ;mcc_generated_files/eusart1.c: 251:     eusart1RxBuffer[eusart1RxHead++] = RCREG1;
  2718   00127E  503D               	movf	_eusart1RxHead^0,w,c
  2719   001280  0F21               	addlw	low _eusart1RxBuffer
  2720   001282  6ED9               	movwf	fsr2l,c
  2721   001284  6ADA               	clrf	fsr2h,c
  2722   001286  CFAE FFDF          	movff	4014,indf2	;volatile
  2723   00128A  2A3D               	incf	_eusart1RxHead^0,f,c	;volatile
  2724   00128C                     
  2725                           ;mcc_generated_files/eusart1.c: 252:     if(sizeof(eusart1RxBuffer) <= eusart1RxHead)
  2726   00128C  0E07               	movlw	7
  2727   00128E  643D               	cpfsgt	_eusart1RxHead^0,c	;volatile
  2728   001290  EF4C  F009         	goto	i2u1_41
  2729   001294  EF4E  F009         	goto	i2u1_40
  2730   001298                     i2u1_41:
  2731   001298  EF50  F009         	goto	i2l1209
  2732   00129C                     i2u1_40:
  2733   00129C                     
  2734                           ;mcc_generated_files/eusart1.c: 253:     {;mcc_generated_files/eusart1.c: 254:         e
      +                          usart1RxHead = 0;
  2735   00129C  0E00               	movlw	0
  2736   00129E  6E3D               	movwf	_eusart1RxHead^0,c	;volatile
  2737   0012A0                     i2l1209:
  2738                           
  2739                           ;mcc_generated_files/eusart1.c: 256:     eusart1RxCount++;
  2740   0012A0  2A3B               	incf	_eusart1RxCount^0,f,c	;volatile
  2741   0012A2  0012               	return		;funcret
  2742   0012A4                     __end_of_EUSART1_RxDataHandler:
  2743                           	callstack 0
  2744                           
  2745                           	psect	smallconst
  2746   000F00                     __psmallconst:
  2747                           	callstack 0
  2748   000F00  00                 	db	0
  2749   000F01  00                 	db	0	; dummy byte at the end
  2750   000000                     
  2751                           	psect	text36
  2752   000000                     __ptext36:
  2753                           	callstack 0
  2754   000000                     
  2755                           	psect	rparam
  2756   000000                     
  2757                           	psect	temp
  2758   00005B                     btemp:
  2759                           	callstack 0
  2760   00005B                     	ds	1
  2761   000000                     int$flags	set	btemp
  2762   000000                     wtemp8	set	btemp+1
  2763   000000                     ttemp5	set	btemp+1
  2764   000000                     ttemp6	set	btemp+4
  2765   000000                     ttemp7	set	btemp+8
  2766                           
  2767                           	psect	config
  2768                           
  2769                           ;Config register CONFIG1L @ 0x300000
  2770                           ;	VREG Sleep Enable bit
  2771                           ;	RETEN = OFF, Ultra low-power regulator is Disabled (Controlled by REGSLP bit)
  2772                           ;	LF-INTOSC Low-power Enable bit
  2773                           ;	INTOSCSEL = HIGH, LF-INTOSC in High-power mode during Sleep
  2774                           ;	SOSC Power Selection and mode Configuration bits
  2775                           ;	SOSCSEL = DIG, Digital (SCLKI) mode
  2776                           ;	Extended Instruction Set
  2777                           ;	XINST = OFF, Disabled
  2778   300000                     	org	3145728
  2779   300000  15                 	db	21
  2780                           
  2781                           ;Config register CONFIG1H @ 0x300001
  2782                           ;	Oscillator
  2783                           ;	FOSC = INTIO2, Internal RC oscillator
  2784                           ;	PLL x4 Enable bit
  2785                           ;	PLLCFG = OFF, Disabled
  2786                           ;	Fail-Safe Clock Monitor
  2787                           ;	FCMEN = OFF, Disabled
  2788                           ;	Internal External Oscillator Switch Over Mode
  2789                           ;	IESO = OFF, Disabled
  2790   300001                     	org	3145729
  2791   300001  08                 	db	8
  2792                           
  2793                           ;Config register CONFIG2L @ 0x300002
  2794                           ;	Power Up Timer
  2795                           ;	PWRTEN = OFF, Disabled
  2796                           ;	Brown Out Detect
  2797                           ;	BOREN = SBORDIS, Enabled in hardware, SBOREN disabled
  2798                           ;	Brown-out Reset Voltage bits
  2799                           ;	BORV = 3, 1.8V
  2800                           ;	BORMV Power level
  2801                           ;	BORPWR = ZPBORMV, ZPBORMV instead of BORMV is selected
  2802   300002                     	org	3145730
  2803   300002  7F                 	db	127
  2804                           
  2805                           ;Config register CONFIG2H @ 0x300003
  2806                           ;	Watchdog Timer
  2807                           ;	WDTEN = OFF, WDT disabled in hardware; SWDTEN bit disabled
  2808                           ;	Watchdog Postscaler
  2809                           ;	WDTPS = 1048576, 1:1048576
  2810   300003                     	org	3145731
  2811   300003  50                 	db	80
  2812                           
  2813                           ; Padding undefined space
  2814   300004                     	org	3145732
  2815   300004  FF                 	db	255
  2816                           
  2817                           ;Config register CONFIG3H @ 0x300005
  2818                           ;	ECAN Mux bit
  2819                           ;	CANMX = PORTB, ECAN TX and RX pins are located on RB2 and RB3, respectively
  2820                           ;	MSSP address masking
  2821                           ;	MSSPMSK = MSK7, 7 Bit address masking mode
  2822                           ;	Master Clear Enable
  2823                           ;	MCLRE = ON, MCLR Enabled, RE3 Disabled
  2824   300005                     	org	3145733
  2825   300005  89                 	db	137
  2826                           
  2827                           ;Config register CONFIG4L @ 0x300006
  2828                           ;	Stack Overflow Reset
  2829                           ;	STVREN = ON, Enabled
  2830                           ;	Boot Block Size
  2831                           ;	BBSIZ = BB2K, 2K word Boot Block size
  2832                           ;	Background Debugger
  2833                           ;	DEBUG = 0x1, unprogrammed default
  2834   300006                     	org	3145734
  2835   300006  91                 	db	145
  2836                           
  2837                           ; Padding undefined space
  2838   300007                     	org	3145735
  2839   300007  FF                 	db	255
  2840                           
  2841                           ;Config register CONFIG5L @ 0x300008
  2842                           ;	Code Protect 00800-01FFF
  2843                           ;	CP0 = OFF, Disabled
  2844                           ;	Code Protect 02000-03FFF
  2845                           ;	CP1 = OFF, Disabled
  2846                           ;	Code Protect 04000-05FFF
  2847                           ;	CP2 = OFF, Disabled
  2848                           ;	Code Protect 06000-07FFF
  2849                           ;	CP3 = OFF, Disabled
  2850   300008                     	org	3145736
  2851   300008  0F                 	db	15
  2852                           
  2853                           ;Config register CONFIG5H @ 0x300009
  2854                           ;	Code Protect Boot
  2855                           ;	CPB = OFF, Disabled
  2856                           ;	Data EE Read Protect
  2857                           ;	CPD = OFF, Disabled
  2858   300009                     	org	3145737
  2859   300009  C0                 	db	192
  2860                           
  2861                           ;Config register CONFIG6L @ 0x30000A
  2862                           ;	Table Write Protect 00800-01FFF
  2863                           ;	WRT0 = OFF, Disabled
  2864                           ;	Table Write Protect 02000-03FFF
  2865                           ;	WRT1 = OFF, Disabled
  2866                           ;	Table Write Protect 04000-05FFF
  2867                           ;	WRT2 = OFF, Disabled
  2868                           ;	Table Write Protect 06000-07FFF
  2869                           ;	WRT3 = OFF, Disabled
  2870   30000A                     	org	3145738
  2871   30000A  0F                 	db	15
  2872                           
  2873                           ;Config register CONFIG6H @ 0x30000B
  2874                           ;	Config. Write Protect
  2875                           ;	WRTC = OFF, Disabled
  2876                           ;	Table Write Protect Boot
  2877                           ;	WRTB = OFF, Disabled
  2878                           ;	Data EE Write Protect
  2879                           ;	WRTD = OFF, Disabled
  2880   30000B                     	org	3145739
  2881   30000B  E0                 	db	224
  2882                           
  2883                           ;Config register CONFIG7L @ 0x30000C
  2884                           ;	Table Read Protect 00800-01FFF
  2885                           ;	EBTR0 = OFF, Disabled
  2886                           ;	Table Read Protect 02000-03FFF
  2887                           ;	EBTR1 = OFF, Disabled
  2888                           ;	Table Read Protect 04000-05FFF
  2889                           ;	EBTR2 = OFF, Disabled
  2890                           ;	Table Read Protect 06000-07FFF
  2891                           ;	EBTR3 = OFF, Disabled
  2892   30000C                     	org	3145740
  2893   30000C  0F                 	db	15
  2894                           
  2895                           ;Config register CONFIG7H @ 0x30000D
  2896                           ;	Table Read Protect Boot
  2897                           ;	EBTRB = OFF, Disabled
  2898   30000D                     	org	3145741
  2899   30000D  40                 	db	64
  2900                           tosu	equ	0xFFF
  2901                           tosh	equ	0xFFE
  2902                           tosl	equ	0xFFD
  2903                           stkptr	equ	0xFFC
  2904                           pclatu	equ	0xFFB
  2905                           pclath	equ	0xFFA
  2906                           pcl	equ	0xFF9
  2907                           tblptru	equ	0xFF8
  2908                           tblptrh	equ	0xFF7
  2909                           tblptrl	equ	0xFF6
  2910                           tablat	equ	0xFF5
  2911                           prodh	equ	0xFF4
  2912                           prodl	equ	0xFF3
  2913                           indf0	equ	0xFEF
  2914                           postinc0	equ	0xFEE
  2915                           postdec0	equ	0xFED
  2916                           preinc0	equ	0xFEC
  2917                           plusw0	equ	0xFEB
  2918                           fsr0h	equ	0xFEA
  2919                           fsr0l	equ	0xFE9
  2920                           wreg	equ	0xFE8
  2921                           indf1	equ	0xFE7
  2922                           postinc1	equ	0xFE6
  2923                           postdec1	equ	0xFE5
  2924                           preinc1	equ	0xFE4
  2925                           plusw1	equ	0xFE3
  2926                           fsr1h	equ	0xFE2
  2927                           fsr1l	equ	0xFE1
  2928                           bsr	equ	0xFE0
  2929                           indf2	equ	0xFDF
  2930                           postinc2	equ	0xFDE
  2931                           postdec2	equ	0xFDD
  2932                           preinc2	equ	0xFDC
  2933                           plusw2	equ	0xFDB
  2934                           fsr2h	equ	0xFDA
  2935                           fsr2l	equ	0xFD9
  2936                           status	equ	0xFD8

Data Sizes:
    Strings     0
    Constant    0
    Data        0
    BSS         64
    Persistent  20
    Stack       0

Auto Spaces:
    Space          Size  Autos    Used
    COMRAM           94      6      90
    BANK0           160      0       0
    BANK1           256      0       0
    BANK2           256      0       0
    BANK3           256      0       0
    BANK4           256      0       0
    BANK5           256      0       0
    BANK6           256      0       0
    BANK7           256      0       0
    BANK8           256      0       0
    BANK9           256      0       0
    BANK10          256      0       0
    BANK11          256      0       0
    BANK12          256      0       0
    BANK13          256      0       0
    BANK14           65      0       0

Pointer List with Targets:

    ADC_InterruptHandler	PTR FTN()void  size(2) Largest target is 1
		 -> NULL(), 

    EUSART1_ErrorHandler	PTR FTN()void  size(2) Largest target is 1
		 -> EUSART1_DefaultErrorHandler(), NULL(), 

    EUSART1_FramingErrorHandler	PTR FTN()void  size(2) Largest target is 1
		 -> EUSART1_DefaultFramingErrorHandler(), NULL(), 

    EUSART1_OverrunErrorHandler	PTR FTN()void  size(2) Largest target is 1
		 -> EUSART1_DefaultOverrunErrorHandler(), NULL(), 

    EUSART1_RxDefaultInterruptHandler	PTR FTN()void  size(2) Largest target is 1
		 -> EUSART1_Receive_ISR(), NULL(), 

    EUSART1_SetErrorHandler@interruptHandler	PTR FTN()void  size(2) Largest target is 1
		 -> EUSART1_DefaultErrorHandler(), 

    EUSART1_SetFramingErrorHandler@interruptHandler	PTR FTN()void  size(2) Largest target is 1
		 -> EUSART1_DefaultFramingErrorHandler(), 

    EUSART1_SetOverrunErrorHandler@interruptHandler	PTR FTN()void  size(2) Largest target is 1
		 -> EUSART1_DefaultOverrunErrorHandler(), 

    EUSART1_SetRxInterruptHandler@interruptHandler	PTR FTN()void  size(2) Largest target is 1
		 -> EUSART1_Receive_ISR(), 

    EUSART1_SetTxInterruptHandler@interruptHandler	PTR FTN()void  size(2) Largest target is 1
		 -> EUSART1_Transmit_ISR(), 

    EUSART1_TxDefaultInterruptHandler	PTR FTN()void  size(2) Largest target is 1
		 -> EUSART1_Transmit_ISR(), NULL(), 

    EUSART2_ErrorHandler	PTR FTN()void  size(2) Largest target is 1
		 -> EUSART2_DefaultErrorHandler(), NULL(), 

    EUSART2_FramingErrorHandler	PTR FTN()void  size(2) Largest target is 1
		 -> EUSART2_DefaultFramingErrorHandler(), NULL(), 

    EUSART2_OverrunErrorHandler	PTR FTN()void  size(2) Largest target is 1
		 -> EUSART2_DefaultOverrunErrorHandler(), NULL(), 

    EUSART2_RxDefaultInterruptHandler	PTR FTN()void  size(2) Largest target is 1
		 -> EUSART2_Receive_ISR(), NULL(), 

    EUSART2_SetErrorHandler@interruptHandler	PTR FTN()void  size(2) Largest target is 1
		 -> EUSART2_DefaultErrorHandler(), 

    EUSART2_SetFramingErrorHandler@interruptHandler	PTR FTN()void  size(2) Largest target is 1
		 -> EUSART2_DefaultFramingErrorHandler(), 

    EUSART2_SetOverrunErrorHandler@interruptHandler	PTR FTN()void  size(2) Largest target is 1
		 -> EUSART2_DefaultOverrunErrorHandler(), 

    EUSART2_SetRxInterruptHandler@interruptHandler	PTR FTN()void  size(2) Largest target is 1
		 -> EUSART2_Receive_ISR(), 

    EUSART2_SetTxInterruptHandler@interruptHandler	PTR FTN()void  size(2) Largest target is 1
		 -> EUSART2_Transmit_ISR(), 

    EUSART2_TxDefaultInterruptHandler	PTR FTN()void  size(2) Largest target is 1
		 -> EUSART2_Transmit_ISR(), NULL(), 


Critical Paths under _main in COMRAM

    _videEcran->_EUSART2_Write
    _EUSART2_Initialize->_EUSART2_SetErrorHandler
    _EUSART2_Initialize->_EUSART2_SetFramingErrorHandler
    _EUSART2_Initialize->_EUSART2_SetOverrunErrorHandler
    _EUSART2_Initialize->_EUSART2_SetRxInterruptHandler
    _EUSART2_Initialize->_EUSART2_SetTxInterruptHandler
    _EUSART1_Initialize->_EUSART1_SetErrorHandler
    _EUSART1_Initialize->_EUSART1_SetFramingErrorHandler
    _EUSART1_Initialize->_EUSART1_SetOverrunErrorHandler
    _EUSART1_Initialize->_EUSART1_SetRxInterruptHandler
    _EUSART1_Initialize->_EUSART1_SetTxInterruptHandler

Critical Paths under _INTERRUPT_InterruptManager in COMRAM

    None.

Critical Paths under _main in BANK0

    None.

Critical Paths under _INTERRUPT_InterruptManager in BANK0

    None.

Critical Paths under _main in BANK1

    None.

Critical Paths under _INTERRUPT_InterruptManager in BANK1

    None.

Critical Paths under _main in BANK2

    None.

Critical Paths under _INTERRUPT_InterruptManager in BANK2

    None.

Critical Paths under _main in BANK3

    None.

Critical Paths under _INTERRUPT_InterruptManager in BANK3

    None.

Critical Paths under _main in BANK4

    None.

Critical Paths under _INTERRUPT_InterruptManager in BANK4

    None.

Critical Paths under _main in BANK5

    None.

Critical Paths under _INTERRUPT_InterruptManager in BANK5

    None.

Critical Paths under _main in BANK6

    None.

Critical Paths under _INTERRUPT_InterruptManager in BANK6

    None.

Critical Paths under _main in BANK7

    None.

Critical Paths under _INTERRUPT_InterruptManager in BANK7

    None.

Critical Paths under _main in BANK8

    None.

Critical Paths under _INTERRUPT_InterruptManager in BANK8

    None.

Critical Paths under _main in BANK9

    None.

Critical Paths under _INTERRUPT_InterruptManager in BANK9

    None.

Critical Paths under _main in BANK10

    None.

Critical Paths under _INTERRUPT_InterruptManager in BANK10

    None.

Critical Paths under _main in BANK11

    None.

Critical Paths under _INTERRUPT_InterruptManager in BANK11

    None.

Critical Paths under _main in BANK12

    None.

Critical Paths under _INTERRUPT_InterruptManager in BANK12

    None.

Critical Paths under _main in BANK13

    None.

Critical Paths under _INTERRUPT_InterruptManager in BANK13

    None.

Critical Paths under _main in BANK14

    None.

Critical Paths under _INTERRUPT_InterruptManager in BANK14

    None.

Call Graph Tables:

 ---------------------------------------------------------------------------------
 (Depth) Function   	        Calls       Base Space   Used Autos Params    Refs
 ---------------------------------------------------------------------------------
 (0) _main                                                 0     0      0    1010
                  _SYSTEM_Initialize
                          _videEcran
 ---------------------------------------------------------------------------------
 (1) _videEcran                                            0     0      0      30
                      _EUSART2_Write
 ---------------------------------------------------------------------------------
 (2) _EUSART2_Write                                        1     1      0      30
                                              4 COMRAM     1     1      0
 ---------------------------------------------------------------------------------
 (1) _SYSTEM_Initialize                                    0     0      0     980
                     _ADC_Initialize
                   _ECCP1_Initialize
                 _EUSART1_Initialize
                 _EUSART2_Initialize
               _INTERRUPT_Initialize
              _OSCILLATOR_Initialize
             _PIN_MANAGER_Initialize
                    _PWM2_Initialize
                    _TMR2_Initialize
 ---------------------------------------------------------------------------------
 (2) _TMR2_Initialize                                      0     0      0       0
 ---------------------------------------------------------------------------------
 (2) _PWM2_Initialize                                      0     0      0       0
 ---------------------------------------------------------------------------------
 (2) _PIN_MANAGER_Initialize                               0     0      0       0
 ---------------------------------------------------------------------------------
 (2) _OSCILLATOR_Initialize                                0     0      0       0
 ---------------------------------------------------------------------------------
 (2) _INTERRUPT_Initialize                                 0     0      0       0
 ---------------------------------------------------------------------------------
 (2) _EUSART2_Initialize                                   0     0      0     490
            _EUSART2_SetErrorHandler
     _EUSART2_SetFramingErrorHandler
     _EUSART2_SetOverrunErrorHandler
      _EUSART2_SetRxInterruptHandler
      _EUSART2_SetTxInterruptHandler
 ---------------------------------------------------------------------------------
 (3) _EUSART2_SetTxInterruptHandler                        2     0      2      98
                                              4 COMRAM     2     0      2
 ---------------------------------------------------------------------------------
 (3) _EUSART2_SetRxInterruptHandler                        2     0      2      98
                                              4 COMRAM     2     0      2
 ---------------------------------------------------------------------------------
 (3) _EUSART2_SetOverrunErrorHandler                       2     0      2      98
                                              4 COMRAM     2     0      2
 ---------------------------------------------------------------------------------
 (3) _EUSART2_SetFramingErrorHandler                       2     0      2      98
                                              4 COMRAM     2     0      2
 ---------------------------------------------------------------------------------
 (3) _EUSART2_SetErrorHandler                              2     0      2      98
                                              4 COMRAM     2     0      2
 ---------------------------------------------------------------------------------
 (2) _EUSART1_Initialize                                   0     0      0     490
            _EUSART1_SetErrorHandler
     _EUSART1_SetFramingErrorHandler
     _EUSART1_SetOverrunErrorHandler
      _EUSART1_SetRxInterruptHandler
      _EUSART1_SetTxInterruptHandler
 ---------------------------------------------------------------------------------
 (3) _EUSART1_SetTxInterruptHandler                        2     0      2      98
                                              4 COMRAM     2     0      2
 ---------------------------------------------------------------------------------
 (3) _EUSART1_SetRxInterruptHandler                        2     0      2      98
                                              4 COMRAM     2     0      2
 ---------------------------------------------------------------------------------
 (3) _EUSART1_SetOverrunErrorHandler                       2     0      2      98
                                              4 COMRAM     2     0      2
 ---------------------------------------------------------------------------------
 (3) _EUSART1_SetFramingErrorHandler                       2     0      2      98
                                              4 COMRAM     2     0      2
 ---------------------------------------------------------------------------------
 (3) _EUSART1_SetErrorHandler                              2     0      2      98
                                              4 COMRAM     2     0      2
 ---------------------------------------------------------------------------------
 (2) _ECCP1_Initialize                                     0     0      0       0
 ---------------------------------------------------------------------------------
 (2) _ADC_Initialize                                       0     0      0       0
 ---------------------------------------------------------------------------------
 Estimated maximum stack depth 3
 ---------------------------------------------------------------------------------
 (Depth) Function   	        Calls       Base Space   Used Autos Params    Refs
 ---------------------------------------------------------------------------------
 (4) _INTERRUPT_InterruptManager                           4     4      0       0
                                              0 COMRAM     4     4      0
                                NULL *
                _EUSART1_Receive_ISR *
               _EUSART1_Transmit_ISR *
                _EUSART2_Receive_ISR *
               _EUSART2_Transmit_ISR *
 ---------------------------------------------------------------------------------
 (5) _EUSART2_Transmit_ISR                                 0     0      0       0
 ---------------------------------------------------------------------------------
 (5) _EUSART2_Receive_ISR                                  0     0      0       0
                                NULL *
        _EUSART2_DefaultErrorHandler *
 _EUSART2_DefaultFramingErrorHandler *
 _EUSART2_DefaultOverrunErrorHandler *
              _EUSART2_RxDataHandler
 ---------------------------------------------------------------------------------
 (6) _EUSART2_DefaultOverrunErrorHandler                   0     0      0       0
 ---------------------------------------------------------------------------------
 (6) _EUSART2_DefaultFramingErrorHandler                   0     0      0       0
 ---------------------------------------------------------------------------------
 (6) _EUSART2_DefaultErrorHandler                          0     0      0       0
              _EUSART2_RxDataHandler
 ---------------------------------------------------------------------------------
 (6) _EUSART2_RxDataHandler                                0     0      0       0
 ---------------------------------------------------------------------------------
 (5) _EUSART1_Transmit_ISR                                 0     0      0       0
 ---------------------------------------------------------------------------------
 (5) _EUSART1_Receive_ISR                                  0     0      0       0
                                NULL *
        _EUSART1_DefaultErrorHandler *
 _EUSART1_DefaultFramingErrorHandler *
 _EUSART1_DefaultOverrunErrorHandler *
              _EUSART1_RxDataHandler
 ---------------------------------------------------------------------------------
 (6) _EUSART1_DefaultOverrunErrorHandler                   0     0      0       0
 ---------------------------------------------------------------------------------
 (6) _EUSART1_DefaultFramingErrorHandler                   0     0      0       0
 ---------------------------------------------------------------------------------
 (6) _EUSART1_DefaultErrorHandler                          0     0      0       0
              _EUSART1_RxDataHandler
 ---------------------------------------------------------------------------------
 (6) _EUSART1_RxDataHandler                                0     0      0       0
 ---------------------------------------------------------------------------------
 (6) NULL(Fake)                                            0     0      0       0
 ---------------------------------------------------------------------------------
 Estimated maximum stack depth 6
 ---------------------------------------------------------------------------------

 Call Graph Graphs:

 _main (ROOT)
   _SYSTEM_Initialize
     _ADC_Initialize
     _ECCP1_Initialize
     _EUSART1_Initialize
       _EUSART1_SetErrorHandler
       _EUSART1_SetFramingErrorHandler
       _EUSART1_SetOverrunErrorHandler
       _EUSART1_SetRxInterruptHandler
       _EUSART1_SetTxInterruptHandler
     _EUSART2_Initialize
       _EUSART2_SetErrorHandler
       _EUSART2_SetFramingErrorHandler
       _EUSART2_SetOverrunErrorHandler
       _EUSART2_SetRxInterruptHandler
       _EUSART2_SetTxInterruptHandler
     _INTERRUPT_Initialize
     _OSCILLATOR_Initialize
     _PIN_MANAGER_Initialize
     _PWM2_Initialize
     _TMR2_Initialize
   _videEcran
     _EUSART2_Write

 _INTERRUPT_InterruptManager (ROOT)
   NULL(Fake) *
   _EUSART1_Receive_ISR *
     NULL(Fake) *
     _EUSART1_DefaultErrorHandler *
       _EUSART1_RxDataHandler
     _EUSART1_DefaultFramingErrorHandler *
     _EUSART1_DefaultOverrunErrorHandler *
     _EUSART1_RxDataHandler *
   _EUSART1_Transmit_ISR *
   _EUSART2_Receive_ISR *
     NULL(Fake) *
     _EUSART2_DefaultErrorHandler *
       _EUSART2_RxDataHandler
     _EUSART2_DefaultFramingErrorHandler *
     _EUSART2_DefaultOverrunErrorHandler *
     _EUSART2_RxDataHandler *
   _EUSART2_Transmit_ISR *

 Address spaces:
Name               Size   Autos  Total    Cost      Usage
BIGRAM             E40      0       0      52        0.0%
EEDATA             400      0       0       0        0.0%
BITBIGSFRlllll     10F      0       0      39        0.0%
BITBANK13          100      0       0      49        0.0%
BANK13             100      0       0      22        0.0%
BITBANK12          100      0       0      48        0.0%
BANK12             100      0       0      21        0.0%
BITBANK11          100      0       0      47        0.0%
BANK11             100      0       0      20        0.0%
BITBANK10          100      0       0      46        0.0%
BANK10             100      0       0      19        0.0%
BITBANK9           100      0       0      45        0.0%
BANK9              100      0       0      18        0.0%
BITBANK8           100      0       0      44        0.0%
BANK8              100      0       0      17        0.0%
BITBANK7           100      0       0      43        0.0%
BANK7              100      0       0      16        0.0%
BITBANK6           100      0       0      42        0.0%
BANK6              100      0       0      15        0.0%
BITBANK5           100      0       0      41        0.0%
BANK5              100      0       0      14        0.0%
BITBANK4           100      0       0      12        0.0%
BANK4              100      0       0      13        0.0%
BITBANK3           100      0       0      10        0.0%
BANK3              100      0       0      11        0.0%
BITBANK2           100      0       0       8        0.0%
BANK2              100      0       0       9        0.0%
BITBANK1           100      0       0       6        0.0%
BANK1              100      0       0       7        0.0%
BITBANK0            A0      0       0       4        0.0%
BANK0               A0      0       0       5        0.0%
BITCOMRAM           5E      0       0       0        0.0%
COMRAM              5E      6      5A       1       95.7%
BITBANK14           41      0       0      50        0.0%
BANK14              41      0       0      51        0.0%
BITBIGSFRhhhl       1D      0       0      24        0.0%
BITBIGSFRlllhll     1B      0       0      37        0.0%
BITBIGSFRhhhh        D      0       0      23        0.0%
BITBIGSFRllhl        B      0       0      36        0.0%
BITBIGSFRlhhhhh      9      0       0      29        0.0%
BITBIGSFRllllh       8      0       0      38        0.0%
BITBIGSFRllhhl       6      0       0      35        0.0%
BITBIGSFRhhll        5      0       0      27        0.0%
BITBIGSFRllhhh       4      0       0      34        0.0%
BITBIGSFRlhhll       4      0       0      32        0.0%
BITBIGSFRhhlhl       3      0       0      26        0.0%
BITBIGSFRlhhhl       3      0       0      30        0.0%
BITBIGSFRlhhhhh      2      0       0      28        0.0%
BITBIGSFRhhlhh       1      0       0      25        0.0%
BITBIGSFRlhhlh       1      0       0      31        0.0%
BITBIGSFRlhl         1      0       0      33        0.0%
BIGSFR               0      0       0     200        0.0%
BITSFR_2             0      0       0     200        0.0%
SFR_2                0      0       0     200        0.0%
BITSFR_1             0      0       0     200        0.0%
SFR_1                0      0       0     200        0.0%
BITSFR               0      0       0     200        0.0%
SFR                  0      0       0     200        0.0%
STACK                0      0       0       2        0.0%
NULL                 0      0       0       0        0.0%
ABS                  0      0      5A      40        0.0%
DATA                 0      0      5A       3        0.0%
CODE                 0      0       0       0        0.0%


Microchip Technology PIC18 Macro Assembler V2.45 build 20230818022343 
Symbol Table                                                                                   Tue Feb 04 09:54:49 2025

                      _eusart1TxBufferRemaining 003E                          ?_EUSART2_RxDataHandler 0055  
                                            l19 12D2                                              l66 1256  
                                            l69 130A                                              u30 1150  
                                            u31 114C                                              u40 115E  
                                            u41 115A                                              u50 1186  
                                            u51 1182                                             l210 139A  
                                           l204 1390                                             l300 131A  
                                           l213 1372                                             l207 1386  
                                           l216 137C                                             l144 113C  
                                           l225 1336                                             l250 1230  
                                           l330 12F8                                             l500 13B6  
                                           l408 10C8                                             l432 1150  
                                           l264 12E0                                             l433 1166  
                                           l281 1328                                             l265 12E0  
                                           l436 118E                                             l471 1368  
                                           l465 135E                                             l474 1340  
                                           l468 1354                                             l477 134A  
                                           _PR2 0FCB          __end_of_EUSART2_SetFramingErrorHandler 1360  
                _EUSART2_SetFramingErrorHandler 1356                                 _TMR2_Initialize 130C  
                                           tosl 0FFD                                             wreg 0FE8  
                                    _TXSTA1bits 0FAC                                      _TXSTA2bits 0FBA  
                                          l1231 12BE                                            l1311 1174  
                                          l1303 1140                                            l1241 132A  
                                          l1233 13B4                                            l1313 1176  
                                          l1305 1140                                            l1235 1208  
                                          l1243 12E8                                            l1315 1186  
                                          l1307 115E                                            l1237 122E  
                                          l1245 12F6                                            l1317 118A  
                                          l1309 1168                                            l1239 12FA  
                                          l1247 130C                                            l1319 118C  
                                          l1601 10EE                                            l1249 1314  
                                          l1611 1112                                            l1603 10F2  
                                          l1613 113A                                            l1605 10F6  
                                          l1621 1072                                            l1607 10FA  
                                          l1631 1086                                            l1623 1076  
                                          l1615 1056                                            l1609 1106  
                                          l1633 1092                                            l1625 107A  
                                          l1617 1058                                            l1641 1236  
                                          l1393 131C                                            l1571 1374  
                                          l1635 109E                                            l1627 107E  
                                          l1619 1064                                            l1651 124A  
                                          l1643 123A                                            l1573 136A  
                                          l1581 1342                                            l1637 10C6  
                                          l1629 1082                                            l1653 124E  
                                          l1645 123E                                            l1661 12DA  
                                          l1575 1388                                            l1591 10CA  
                                          l1583 1338                                            l1655 1252  
                                          l1647 1242                                            l1639 1232  
                                          l1663 12DC                                            l1577 137E  
                                          l1593 10CC                                            l1585 1356  
                                          l1649 1246                                            l1657 12D4  
                                          l1579 1392                                            l1595 10D8  
                                          l1587 134C                                            l1659 12D8  
                                          l1597 10E6                                            l1589 1360  
                                          l1599 10EA                                            _LATA 0F89  
                                          _LATB 0F8A                                            _LATC 0F8B  
                                          _TMR2 0FCC                                            _WPUB 0F5B  
                         ??_EUSART2_Receive_ISR 0055                                   _EUSART2_Write 113E  
                                          _main 12D4                                            fsr2h 0FDA  
                                          indf2 0FDF                                            fsr2l 0FD9  
                                          btemp 005B                                            start 0124  
                  __end_of_EUSART2_Transmit_ISR 11CC                  fp__EUSART1_DefaultErrorHandler 0000  
                                  ___param_bank 0000                         __end_of_PWM2_Initialize 12FA  
                 __end_of_OSCILLATOR_Initialize 130C                           _eusart1RxStatusBuffer 0019  
                                         ?_main 0055                                           _T2CON 0FCA  
                                         i2l201 13B2                                           i2l181 1206  
                                         i2l510 00D6                                           i2l192 12A2  
                                         i2l178 1204                                           i2l442 11CA  
                                         i2l506 0062                                           i2l195 13BA  
                                         i2l515 0110                                           i2l188 1054  
                                         i2l508 009C                                           i2l453 127C  
                                         i2l509 0110                                           i2l198 13AC  
                                         i2l462 13A6                                           i2l439 11C8  
                                         i2l456 13B8                                           i2l449 0FAA  
                                         i2l459 13A0                                           _TRISA 0F92  
                                         _TRISB 0F93                                           _TRISC 0F94  
                          _EUSART1_Transmit_ISR 11CC                                  ?_EUSART2_Write 0055  
                                         pclath 0FFA                                           pclatu 0FFB  
                                         ttemp5 005C                                           ttemp6 005F  
                                         ttemp7 0063                                           status 0FD8  
                                         wtemp8 005C           fp__EUSART1_DefaultFramingErrorHandler 0000  
    __end_of_EUSART1_DefaultFramingErrorHandler 13BC            ??_EUSART1_DefaultFramingErrorHandler 0055  
           ?_EUSART1_DefaultFramingErrorHandler 0055              _EUSART1_DefaultFramingErrorHandler 13BA  
         __end_of_EUSART2_SetTxInterruptHandler 1342                   _EUSART2_SetTxInterruptHandler 1338  
                               __initialization 12A4                      __end_of_EUSART1_Initialize 113E  
                                  __end_of_main 12E8                         __end_of_TMR2_Initialize 131C  
                   ?_INTERRUPT_InterruptManager 0055                                          ??_main 005B  
                                 __activetblptr 0002             __end_of_EUSART2_DefaultErrorHandler 13A8  
                   _EUSART2_DefaultErrorHandler 13A2                           ?_EUSART1_Transmit_ISR 0055  
                    __end_of_EUSART2_Initialize 10CA                                          _ADCON0 0FC2  
                                        _ADCON1 0FC1                                          _ADCON2 0FC0  
                      _eusart2TxBufferRemaining 0037                                          _ADRESH 0FC4  
                                        _ADRESL 0FC3                                          _CCPR1H 0FBD  
                                        _CCPR2H 0F52                                          _CCPR1L 0FBC  
                                        _CCPR2L 0F51                                          _ANCON0 0F5D  
                                        _ANCON1 0F5C                                          i2l1201 127E  
                                        i2l1203 128A                                          i2l1205 128C  
                                        i2l1301 13AE                                          i2l1221 1258  
                                        i2l1207 129C                                          i2l1223 1264  
                                        i2l1209 12A0                                          i2l1225 1266  
                                        i2l1321 139C                                          i2l1401 11AE  
                                        i2l1227 1276                                          i2l1323 13A2  
                                        i2l1411 0F1A                                          i2l1403 11BE  
                                        i2l1229 127A                                          i2l1421 0F70  
                                        i2l1413 0F24                                          i2l1405 11C2  
                                        i2l1423 0F88                                          i2l1415 0F3E  
                                        i2l1407 0F02                                          i2l1361 11CC  
                                        i2l1425 0FA6                                          i2l1417 0F4C  
                                        i2l1409 0F0C                                          i2l1371 11FE  
                                        i2l1363 11DC                                          i2l1419 0F56  
                                        i2l1381 0FE8                                          i2l1373 0FAC  
                                        i2l1365 11E8                                          i2l1391 1050  
                                        i2l1383 0FF6                                          i2l1375 0FB6  
                                        i2l1367 11EA                                          i2l1551 001A  
                                        i2l1385 1000                                          i2l1377 0FC4  
                                        i2l1369 11FA                                          i2l1561 007E  
                                        i2l1553 0028                                          i2l1299 13A8  
                                        i2l1387 101A                                          i2l1379 0FCE  
                                        i2l1395 1190                                          i2l1563 00AA  
                                        i2l1555 0036                                          i2l1389 1032  
                                        i2l1397 11A0                                          i2l1565 00B8  
                                        i2l1557 0044                                          i2l1399 11AC  
                                        i2l1567 00E4                                          i2l1559 0070  
                                        i2l1569 00F2                                          _RCREG1 0FAE  
                                        _RCREG2 0F7A                                          _RCSTA1 0FAB  
                                        _RCSTA2 0FA6                                          _OSCCON 0FD3  
                                        _SPBRG1 0FAF                                          _SPBRG2 0F7B  
                                        i2u1_40 129C                                          i2u1_41 1298  
                                        i2u2_40 1276                                          i2u2_41 1272  
                                        i2u9_40 11DC                                          i2u9_41 11D8  
                                        _TXREG1 0FAD                                          _TXREG2 0F79  
                                        _TXSTA1 0FAC                                          _TXSTA2 0FBA  
                      ?_EUSART1_SetErrorHandler 0059                                ?_PWM2_Initialize 0055  
                                        clear_0 12AA                                          isa$std 0001  
                   _EUSART2_FramingErrorHandler 0045                ??_EUSART1_SetOverrunErrorHandler 005B  
               ?_EUSART1_SetOverrunErrorHandler 0059                                    __mediumconst 0000  
                                        tblptru 0FF8                            _EUSART2_Transmit_ISR 1190  
                               ??_EUSART2_Write 0059                               ?_ECCP1_Initialize 0055  
                               _eusart1RxBuffer 0021                                 _eusart1TxBuffer 0029  
                               _eusart2RxBuffer 0009                               _SYSTEM_Initialize 1232  
                            ??_ECCP1_Initialize 0059                                 _eusart2TxBuffer 0011  
                                    __accesstop 0060                         __end_of__initialization 12B0  
                            ?_SYSTEM_Initialize 0055                                   ___rparam_used 0001  
                       ??_EUSART2_RxDataHandler 0055                   __end_of_EUSART1_RxDataHandler 12A4  
                                __pcstackCOMRAM 0055                             ??_SYSTEM_Initialize 005B  
                ?_EUSART2_SetTxInterruptHandler 0059                                ?_TMR2_Initialize 0055  
                        ??_EUSART1_Transmit_ISR 0055                        ?_EUSART2_SetErrorHandler 0059  
                         ?_EUSART2_Transmit_ISR 0055                     __end_of_EUSART1_Receive_ISR 1056  
                     __end_of_SYSTEM_Initialize 1258                                   _eusart1RxHead 003D  
                                 _eusart1TxHead 0040                                   _eusart2RxHead 0036  
                                 _eusart1RxTail 003C                                   _eusart2TxHead 0039  
                                 _eusart1TxTail 003F                                   _eusart2RxTail 0035  
             _EUSART1_TxDefaultInterruptHandler 0053                                   _eusart2TxTail 0038  
               ??_EUSART1_SetRxInterruptHandler 005B                ??_EUSART2_SetFramingErrorHandler 005B  
               ?_EUSART2_SetFramingErrorHandler 0059                                      __pnvCOMRAM 0041  
               __end_of_EUSART1_SetErrorHandler 139C                                         _CCP1CON 0FBB  
                                       _CCP2CON 0F50          __end_of_EUSART1_SetFramingErrorHandler 1392  
                _EUSART1_SetFramingErrorHandler 1388                           _eusart2RxStatusBuffer 0001  
                  ?_EUSART1_DefaultErrorHandler 0055                                         _REFOCON 0F9A  
                                       _OSCCON2 0FD2                     __end_of_EUSART2_Receive_ISR 0FAC  
                                       i2u10_40 11FA                                         i2u10_41 11F6  
                                       i2u11_40 0FC4                                         i2u11_41 0FC0  
                                       i2u13_40 0FF6                                         i2u12_48 0FD4  
                                       i2u21_40 0F4C                                         i2u20_48 0F2A  
                                       i2u13_41 0FF2                                         i2u12_49 0FE8  
                                       i2u21_41 0F48                                         i2u20_49 0F3E  
                                       i2u15_40 1032                                         i2u14_48 1006  
                                       i2u23_40 0F88                                         i2u22_48 0F5C  
                                       i2u15_41 102E                                         i2u14_49 101A  
                                       i2u23_41 0F84                                         i2u22_49 0F70  
                                       i2u40_40 00B8                                         i2u32_40 0028  
                                       i2u40_41 00B4                                         i2u32_41 0024  
                                       i2u16_48 1038                                         i2u24_48 0F8E  
                                       i2u17_40 11A0                                         i2u33_40 0036  
                                       i2u16_49 104C                                         i2u24_49 0FA2  
                                       i2u17_41 119C                                         i2u33_41 0032  
                                       i2u18_40 11BE                                         i2u42_40 00E4  
                                       i2u41_48 00BE                                         i2u34_40 0044  
                                       i2u18_41 11BA                                         i2u42_41 00E0  
                                       i2u41_49 00D2                                         i2u34_41 0040  
                                       i2u19_40 0F1A                                         i2u43_40 00F2  
                                       i2u19_41 0F16                                         i2u43_41 00EE  
                                       i2u36_40 0070                                         i2u35_48 004A  
                                       i2u36_41 006C                                         i2u35_49 005E  
                                       i2u44_48 00F8                                         i2u37_40 007E  
                                       i2u44_49 010C                                         i2u37_41 007A  
                                       _OSCTUNE 0F9B                                         i2u39_40 00AA  
                                       i2u38_48 0084                                         i2u39_41 00A6  
                                       i2u38_49 0098                                         _SPBRGH1 0F7D  
                                       _SPBRGH2 0F7C                            _ADC_InterruptHandler 0031  
                                       __Hparam 0000                                         __Lparam 0000  
                fp__EUSART2_DefaultErrorHandler 0000                                    __psmallconst 0F00  
                                       __pcinit 12A4                 __end_of_EUSART2_SetErrorHandler 136A  
                                       __ramtop 0F00                                         __ptext0 12D4  
                                       __ptext1 131C                                         __ptext2 113E  
                                       __ptext3 1232                                         __ptext4 130C  
                                       __ptext5 12E8                                         __ptext6 1208  
                                       __ptext7 12FA                                         __ptext8 13B4  
                                       __ptext9 1056           fp__EUSART2_DefaultOverrunErrorHandler 0000  
    __end_of_EUSART2_DefaultOverrunErrorHandler 13A2            ??_EUSART2_DefaultOverrunErrorHandler 0055  
           ?_EUSART2_DefaultOverrunErrorHandler 0055              _EUSART2_DefaultOverrunErrorHandler 139C  
                         _OSCILLATOR_Initialize 12FA                          ??_EUSART2_Transmit_ISR 0055  
                                     _T2CONbits 0FCA                              _EUSART1_Initialize 10CA  
                      ??_PIN_MANAGER_Initialize 0059                   ??_EUSART1_DefaultErrorHandler 0055  
                          end_of_initialization 12B0                             ?_EUSART1_Initialize 0055  
                             __end_of_videEcran 132A                                   __Lmediumconst 0000  
                   _EUSART1_OverrunErrorHandler 004D           __end_of_EUSART1_SetRxInterruptHandler 137E  
                 _EUSART1_SetRxInterruptHandler 1374                              _EUSART2_Initialize 1056  
                                       postinc0 0FEE                            ??_EUSART1_Initialize 005B  
                           ?_EUSART2_Initialize 0055                         fp__EUSART1_Transmit_ISR 0000  
                          ??_EUSART2_Initialize 005B                   __end_of_EUSART2_RxDataHandler 127E  
                  __end_of_INTERRUPT_Initialize 13B8                                  _ADC_Initialize 12BE  
                        ?_OSCILLATOR_Initialize 0055                             start_initialization 12A4  
 EUSART2_SetRxInterruptHandler@interruptHandler 0059   EUSART2_SetTxInterruptHandler@interruptHandler 0059  
 EUSART1_SetRxInterruptHandler@interruptHandler 0059   EUSART1_SetTxInterruptHandler@interruptHandler 0059  
                         __end_of_EUSART2_Write 1190                          fp__EUSART1_Receive_ISR 0000  
        __end_of_EUSART2_SetOverrunErrorHandler 1356                  _EUSART2_SetOverrunErrorHandler 134C  
                         _EUSART1_RxDataHandler 127E                                     _CCPTMRSbits 0F99  
                ?_EUSART1_SetRxInterruptHandler 0059                          __end_of_ADC_Initialize 12D4  
                                _eusart1RxCount 003B                                  _eusart2RxCount 0034  
                                   __pbssCOMRAM 0001               _EUSART1_RxDefaultInterruptHandler 0051  
                       fp__EUSART2_Transmit_ISR 0000                             EUSART2_Write@txData 0059  
               ??_EUSART1_SetTxInterruptHandler 005B                ??_EUSART1_SetFramingErrorHandler 005B  
               ?_EUSART1_SetFramingErrorHandler 0059                 ??_EUSART2_SetRxInterruptHandler 005B  
                        fp__EUSART2_Receive_ISR 0000                          _PIN_MANAGER_Initialize 1208  
                                     __pintcode 0008                                 ?_ADC_Initialize 0055  
             _EUSART2_TxDefaultInterruptHandler 0049                    ??_INTERRUPT_InterruptManager 0055  
                                   __smallconst 0F00                                        _BAUDCON1 0FA7  
                                      _BAUDCON2 0FB9           fp__EUSART1_DefaultOverrunErrorHandler 0000  
    __end_of_EUSART1_DefaultOverrunErrorHandler 13AE            ??_EUSART1_DefaultOverrunErrorHandler 0055  
           ?_EUSART1_DefaultOverrunErrorHandler 0055              _EUSART1_DefaultOverrunErrorHandler 13A8  
                          _EUSART1_ErrorHandler 004B                    ?_EUSART2_DefaultErrorHandler 0055  
                       _EUSART1_SetErrorHandler 1392                            _INTERRUPT_Initialize 13B4  
                             ??_PWM2_Initialize 0059         EUSART2_SetErrorHandler@interruptHandler 0059  
       EUSART1_SetErrorHandler@interruptHandler 0059                                        _PIE1bits 0F9D  
                                      _PIE3bits 0FA3                                       _videEcran 131C  
                                      _PIR1bits 0F9E                                        _PIR3bits 0FA4  
                        ?_EUSART1_RxDataHandler 0055                                        _RCONbits 0FD0  
                              _ECCP1_Initialize 132A                                      _ADCON0bits 0FC2  
                 ??_EUSART2_DefaultErrorHandler 0055                                     _INTCON2bits 0FF1  
                         ?_INTERRUPT_Initialize 0055                         _EUSART2_SetErrorHandler 1360  
                             ??_TMR2_Initialize 0059                     _EUSART2_OverrunErrorHandler 0043  
         __end_of_EUSART1_SetTxInterruptHandler 1374                   _EUSART1_SetTxInterruptHandler 136A  
                                      __Hrparam 0000                                      ?_videEcran 0055  
         __end_of_EUSART2_SetRxInterruptHandler 134C                   _EUSART2_SetRxInterruptHandler 1342  
                                      __Lrparam 0000                         ??_OSCILLATOR_Initialize 0059  
                     ??_EUSART1_SetErrorHandler 005B             __end_of_EUSART1_DefaultErrorHandler 13B4  
                   _EUSART1_DefaultErrorHandler 13AE                            _EUSART2_ErrorHandler 0041  
                                      __ptext10 1338                                        __ptext11 1342  
                                      __ptext20 1392                                        __ptext12 134C  
                                      __ptext21 132A                                        __ptext13 1356  
                                      __ptext30 11CC                                        __ptext22 12BE  
                                      __ptext14 1360                                        __ptext31 0FAC  
                                      __ptext15 10CA                                        __ptext32 13A8  
                                      __ptext24 1190                                        __ptext16 136A  
                                      __ptext33 13BA                                        __ptext25 0F02  
                                      __ptext17 1374                                        __ptext34 13AE  
                                      __ptext26 139C                                        __ptext18 137E  
                                      __ptext35 127E                                        __ptext27 13B8  
                                      __ptext19 1388                                        __ptext36 0000  
                                      __ptext28 13A2                                        __ptext29 1258  
         fp__EUSART2_DefaultFramingErrorHandler 0000      __end_of_EUSART2_DefaultFramingErrorHandler 13BA  
          ??_EUSART2_DefaultFramingErrorHandler 0055             ?_EUSART2_DefaultFramingErrorHandler 0055  
            _EUSART2_DefaultFramingErrorHandler 13B8  EUSART2_SetOverrunErrorHandler@interruptHandler 0059  
EUSART1_SetOverrunErrorHandler@interruptHandler 0059                                        isa$xinst 0000  
                                      int$flags 005B              __end_of_INTERRUPT_InterruptManager 0124  
                    _INTERRUPT_InterruptManager 0008                           _EUSART2_RxDataHandler 1258  
                   _EUSART1_FramingErrorHandler 004F                             _EUSART1_Receive_ISR 0FAC  
              ??_EUSART2_SetOverrunErrorHandler 005B                 ?_EUSART2_SetOverrunErrorHandler 0059  
                                    _INTCONbits 0FF2                          ??_INTERRUPT_Initialize 0059  
                     ??_EUSART2_SetErrorHandler 005B                                        intlevel2 0000  
                          ?_EUSART1_Receive_ISR 0055                         ?_PIN_MANAGER_Initialize 0055  
        __end_of_EUSART1_SetOverrunErrorHandler 1388                  _EUSART1_SetOverrunErrorHandler 137E  
                                    _RCSTA1bits 0FAB                                      _RCSTA2bits 0FA6  
                  __end_of_EUSART1_Transmit_ISR 1208                                ??_ADC_Initialize 0059  
                                   ??_videEcran 005A  EUSART2_SetFramingErrorHandler@interruptHandler 0059  
EUSART1_SetFramingErrorHandler@interruptHandler 0059                  ?_EUSART1_SetTxInterruptHandler 0059  
                ?_EUSART2_SetRxInterruptHandler 0059                              _eusart1RxLastError 003A  
                           _EUSART2_Receive_ISR 0F02                                 _PWM2_Initialize 12E8  
                      __end_of_ECCP1_Initialize 1338                           ??_EUSART1_Receive_ISR 0055  
                __end_of_PIN_MANAGER_Initialize 1232                 ??_EUSART2_SetTxInterruptHandler 005B  
                          ?_EUSART2_Receive_ISR 0055                              _eusart2RxLastError 0033  
                       ??_EUSART1_RxDataHandler 0055               _EUSART2_RxDefaultInterruptHandler 0047  
